ARM GAS  /tmp/ccQTchd1.s 			page 1


   1              		.cpu cortex-m0plus
   2              		.arch armv6s-m
   3              		.fpu softvfp
   4              		.eabi_attribute 20, 1
   5              		.eabi_attribute 21, 1
   6              		.eabi_attribute 23, 3
   7              		.eabi_attribute 24, 1
   8              		.eabi_attribute 25, 1
   9              		.eabi_attribute 26, 1
  10              		.eabi_attribute 30, 1
  11              		.eabi_attribute 34, 0
  12              		.eabi_attribute 18, 4
  13              		.file	"usbd_cdc_if.c"
  14              		.text
  15              	.Ltext0:
  16              		.cfi_sections	.debug_frame
  17              		.file 1 "USB_Device/App/usbd_cdc_if.c"
  18              		.section	.text.CDC_DeInit_FS,"ax",%progbits
  19              		.align	1
  20              		.syntax unified
  21              		.code	16
  22              		.thumb_func
  24              	CDC_DeInit_FS:
  25              	.LFB501:
   1:USB_Device/App/usbd_cdc_if.c **** /* USER CODE BEGIN Header */
   2:USB_Device/App/usbd_cdc_if.c **** /**
   3:USB_Device/App/usbd_cdc_if.c ****   ******************************************************************************
   4:USB_Device/App/usbd_cdc_if.c ****   * @file           : usbd_cdc_if.c
   5:USB_Device/App/usbd_cdc_if.c ****   * @version        : v3.0_Cube
   6:USB_Device/App/usbd_cdc_if.c ****   * @brief          : Usb device for Virtual Com Port.
   7:USB_Device/App/usbd_cdc_if.c ****   ******************************************************************************
   8:USB_Device/App/usbd_cdc_if.c ****   * @attention
   9:USB_Device/App/usbd_cdc_if.c ****   *
  10:USB_Device/App/usbd_cdc_if.c ****   * Copyright (c) 2025 STMicroelectronics.
  11:USB_Device/App/usbd_cdc_if.c ****   * All rights reserved.
  12:USB_Device/App/usbd_cdc_if.c ****   *
  13:USB_Device/App/usbd_cdc_if.c ****   * This software is licensed under terms that can be found in the LICENSE file
  14:USB_Device/App/usbd_cdc_if.c ****   * in the root directory of this software component.
  15:USB_Device/App/usbd_cdc_if.c ****   * If no LICENSE file comes with this software, it is provided AS-IS.
  16:USB_Device/App/usbd_cdc_if.c ****   *
  17:USB_Device/App/usbd_cdc_if.c ****   ******************************************************************************
  18:USB_Device/App/usbd_cdc_if.c ****   */
  19:USB_Device/App/usbd_cdc_if.c **** /* USER CODE END Header */
  20:USB_Device/App/usbd_cdc_if.c **** 
  21:USB_Device/App/usbd_cdc_if.c **** /* Includes ------------------------------------------------------------------*/
  22:USB_Device/App/usbd_cdc_if.c **** #include "usbd_cdc_if.h"
  23:USB_Device/App/usbd_cdc_if.c **** 
  24:USB_Device/App/usbd_cdc_if.c **** /* USER CODE BEGIN INCLUDE */
  25:USB_Device/App/usbd_cdc_if.c **** #include "main.h"
  26:USB_Device/App/usbd_cdc_if.c **** /* USER CODE END INCLUDE */
  27:USB_Device/App/usbd_cdc_if.c **** 
  28:USB_Device/App/usbd_cdc_if.c **** /* Private typedef -----------------------------------------------------------*/
  29:USB_Device/App/usbd_cdc_if.c **** /* Private define ------------------------------------------------------------*/
  30:USB_Device/App/usbd_cdc_if.c **** /* Private macro -------------------------------------------------------------*/
  31:USB_Device/App/usbd_cdc_if.c **** 
  32:USB_Device/App/usbd_cdc_if.c **** /* USER CODE BEGIN PV */
  33:USB_Device/App/usbd_cdc_if.c **** /* Private variables ---------------------------------------------------------*/
ARM GAS  /tmp/ccQTchd1.s 			page 2


  34:USB_Device/App/usbd_cdc_if.c **** extern uint8_t usb_rx_buffer[];
  35:USB_Device/App/usbd_cdc_if.c **** extern uint8_t usb_rx_index;
  36:USB_Device/App/usbd_cdc_if.c **** /* USER CODE END PV */
  37:USB_Device/App/usbd_cdc_if.c **** 
  38:USB_Device/App/usbd_cdc_if.c **** /** @addtogroup STM32_USB_OTG_DEVICE_LIBRARY
  39:USB_Device/App/usbd_cdc_if.c ****   * @brief Usb device library.
  40:USB_Device/App/usbd_cdc_if.c ****   * @{
  41:USB_Device/App/usbd_cdc_if.c ****   */
  42:USB_Device/App/usbd_cdc_if.c **** 
  43:USB_Device/App/usbd_cdc_if.c **** /** @addtogroup USBD_CDC_IF
  44:USB_Device/App/usbd_cdc_if.c ****   * @{
  45:USB_Device/App/usbd_cdc_if.c ****   */
  46:USB_Device/App/usbd_cdc_if.c **** 
  47:USB_Device/App/usbd_cdc_if.c **** /** @defgroup USBD_CDC_IF_Private_TypesDefinitions USBD_CDC_IF_Private_TypesDefinitions
  48:USB_Device/App/usbd_cdc_if.c ****   * @brief Private types.
  49:USB_Device/App/usbd_cdc_if.c ****   * @{
  50:USB_Device/App/usbd_cdc_if.c ****   */
  51:USB_Device/App/usbd_cdc_if.c **** 
  52:USB_Device/App/usbd_cdc_if.c **** /* USER CODE BEGIN PRIVATE_TYPES */
  53:USB_Device/App/usbd_cdc_if.c **** 
  54:USB_Device/App/usbd_cdc_if.c **** /* USER CODE END PRIVATE_TYPES */
  55:USB_Device/App/usbd_cdc_if.c **** 
  56:USB_Device/App/usbd_cdc_if.c **** /**
  57:USB_Device/App/usbd_cdc_if.c ****   * @}
  58:USB_Device/App/usbd_cdc_if.c ****   */
  59:USB_Device/App/usbd_cdc_if.c **** 
  60:USB_Device/App/usbd_cdc_if.c **** /** @defgroup USBD_CDC_IF_Private_Defines USBD_CDC_IF_Private_Defines
  61:USB_Device/App/usbd_cdc_if.c ****   * @brief Private defines.
  62:USB_Device/App/usbd_cdc_if.c ****   * @{
  63:USB_Device/App/usbd_cdc_if.c ****   */
  64:USB_Device/App/usbd_cdc_if.c **** 
  65:USB_Device/App/usbd_cdc_if.c **** /* USER CODE BEGIN PRIVATE_DEFINES */
  66:USB_Device/App/usbd_cdc_if.c **** /* USER CODE END PRIVATE_DEFINES */
  67:USB_Device/App/usbd_cdc_if.c **** 
  68:USB_Device/App/usbd_cdc_if.c **** /**
  69:USB_Device/App/usbd_cdc_if.c ****   * @}
  70:USB_Device/App/usbd_cdc_if.c ****   */
  71:USB_Device/App/usbd_cdc_if.c **** 
  72:USB_Device/App/usbd_cdc_if.c **** /** @defgroup USBD_CDC_IF_Private_Macros USBD_CDC_IF_Private_Macros
  73:USB_Device/App/usbd_cdc_if.c ****   * @brief Private macros.
  74:USB_Device/App/usbd_cdc_if.c ****   * @{
  75:USB_Device/App/usbd_cdc_if.c ****   */
  76:USB_Device/App/usbd_cdc_if.c **** 
  77:USB_Device/App/usbd_cdc_if.c **** /* USER CODE BEGIN PRIVATE_MACRO */
  78:USB_Device/App/usbd_cdc_if.c **** 
  79:USB_Device/App/usbd_cdc_if.c **** /* USER CODE END PRIVATE_MACRO */
  80:USB_Device/App/usbd_cdc_if.c **** 
  81:USB_Device/App/usbd_cdc_if.c **** /**
  82:USB_Device/App/usbd_cdc_if.c ****   * @}
  83:USB_Device/App/usbd_cdc_if.c ****   */
  84:USB_Device/App/usbd_cdc_if.c **** 
  85:USB_Device/App/usbd_cdc_if.c **** /** @defgroup USBD_CDC_IF_Private_Variables USBD_CDC_IF_Private_Variables
  86:USB_Device/App/usbd_cdc_if.c ****   * @brief Private variables.
  87:USB_Device/App/usbd_cdc_if.c ****   * @{
  88:USB_Device/App/usbd_cdc_if.c ****   */
  89:USB_Device/App/usbd_cdc_if.c **** /* Create buffer for reception and transmission           */
  90:USB_Device/App/usbd_cdc_if.c **** /* It's up to user to redefine and/or remove those define */
ARM GAS  /tmp/ccQTchd1.s 			page 3


  91:USB_Device/App/usbd_cdc_if.c **** /** Received data over USB are stored in this buffer      */
  92:USB_Device/App/usbd_cdc_if.c **** uint8_t UserRxBufferFS[APP_RX_DATA_SIZE];
  93:USB_Device/App/usbd_cdc_if.c **** 
  94:USB_Device/App/usbd_cdc_if.c **** /** Data to send over USB CDC are stored in this buffer   */
  95:USB_Device/App/usbd_cdc_if.c **** uint8_t UserTxBufferFS[APP_TX_DATA_SIZE];
  96:USB_Device/App/usbd_cdc_if.c **** 
  97:USB_Device/App/usbd_cdc_if.c **** /* USER CODE BEGIN PRIVATE_VARIABLES */
  98:USB_Device/App/usbd_cdc_if.c **** 
  99:USB_Device/App/usbd_cdc_if.c **** /* USER CODE END PRIVATE_VARIABLES */
 100:USB_Device/App/usbd_cdc_if.c **** 
 101:USB_Device/App/usbd_cdc_if.c **** /**
 102:USB_Device/App/usbd_cdc_if.c ****   * @}
 103:USB_Device/App/usbd_cdc_if.c ****   */
 104:USB_Device/App/usbd_cdc_if.c **** 
 105:USB_Device/App/usbd_cdc_if.c **** /** @defgroup USBD_CDC_IF_Exported_Variables USBD_CDC_IF_Exported_Variables
 106:USB_Device/App/usbd_cdc_if.c ****   * @brief Public variables.
 107:USB_Device/App/usbd_cdc_if.c ****   * @{
 108:USB_Device/App/usbd_cdc_if.c ****   */
 109:USB_Device/App/usbd_cdc_if.c **** 
 110:USB_Device/App/usbd_cdc_if.c **** extern USBD_HandleTypeDef hUsbDeviceFS;
 111:USB_Device/App/usbd_cdc_if.c **** 
 112:USB_Device/App/usbd_cdc_if.c **** /* USER CODE BEGIN EXPORTED_VARIABLES */
 113:USB_Device/App/usbd_cdc_if.c **** 
 114:USB_Device/App/usbd_cdc_if.c **** /* USER CODE END EXPORTED_VARIABLES */
 115:USB_Device/App/usbd_cdc_if.c **** 
 116:USB_Device/App/usbd_cdc_if.c **** /**
 117:USB_Device/App/usbd_cdc_if.c ****   * @}
 118:USB_Device/App/usbd_cdc_if.c ****   */
 119:USB_Device/App/usbd_cdc_if.c **** 
 120:USB_Device/App/usbd_cdc_if.c **** /** @defgroup USBD_CDC_IF_Private_FunctionPrototypes USBD_CDC_IF_Private_FunctionPrototypes
 121:USB_Device/App/usbd_cdc_if.c ****   * @brief Private functions declaration.
 122:USB_Device/App/usbd_cdc_if.c ****   * @{
 123:USB_Device/App/usbd_cdc_if.c ****   */
 124:USB_Device/App/usbd_cdc_if.c **** 
 125:USB_Device/App/usbd_cdc_if.c **** static int8_t CDC_Init_FS(void);
 126:USB_Device/App/usbd_cdc_if.c **** static int8_t CDC_DeInit_FS(void);
 127:USB_Device/App/usbd_cdc_if.c **** static int8_t CDC_Control_FS(uint8_t cmd, uint8_t* pbuf, uint16_t length);
 128:USB_Device/App/usbd_cdc_if.c **** static int8_t CDC_Receive_FS(uint8_t* pbuf, uint32_t *Len);
 129:USB_Device/App/usbd_cdc_if.c **** static int8_t CDC_TransmitCplt_FS(uint8_t *pbuf, uint32_t *Len, uint8_t epnum);
 130:USB_Device/App/usbd_cdc_if.c **** 
 131:USB_Device/App/usbd_cdc_if.c **** /* USER CODE BEGIN PRIVATE_FUNCTIONS_DECLARATION */
 132:USB_Device/App/usbd_cdc_if.c **** 
 133:USB_Device/App/usbd_cdc_if.c **** /* USER CODE END PRIVATE_FUNCTIONS_DECLARATION */
 134:USB_Device/App/usbd_cdc_if.c **** 
 135:USB_Device/App/usbd_cdc_if.c **** /**
 136:USB_Device/App/usbd_cdc_if.c ****   * @}
 137:USB_Device/App/usbd_cdc_if.c ****   */
 138:USB_Device/App/usbd_cdc_if.c **** 
 139:USB_Device/App/usbd_cdc_if.c **** USBD_CDC_ItfTypeDef USBD_Interface_fops_FS =
 140:USB_Device/App/usbd_cdc_if.c **** {
 141:USB_Device/App/usbd_cdc_if.c ****   CDC_Init_FS,
 142:USB_Device/App/usbd_cdc_if.c ****   CDC_DeInit_FS,
 143:USB_Device/App/usbd_cdc_if.c ****   CDC_Control_FS,
 144:USB_Device/App/usbd_cdc_if.c ****   CDC_Receive_FS,
 145:USB_Device/App/usbd_cdc_if.c ****   CDC_TransmitCplt_FS
 146:USB_Device/App/usbd_cdc_if.c **** };
 147:USB_Device/App/usbd_cdc_if.c **** 
ARM GAS  /tmp/ccQTchd1.s 			page 4


 148:USB_Device/App/usbd_cdc_if.c **** /* Private functions ---------------------------------------------------------*/
 149:USB_Device/App/usbd_cdc_if.c **** /**
 150:USB_Device/App/usbd_cdc_if.c ****   * @brief  Initializes the CDC media low layer over the FS USB IP
 151:USB_Device/App/usbd_cdc_if.c ****   * @retval USBD_OK if all operations are OK else USBD_FAIL
 152:USB_Device/App/usbd_cdc_if.c ****   */
 153:USB_Device/App/usbd_cdc_if.c **** static int8_t CDC_Init_FS(void)
 154:USB_Device/App/usbd_cdc_if.c **** {
 155:USB_Device/App/usbd_cdc_if.c ****   /* USER CODE BEGIN 3 */
 156:USB_Device/App/usbd_cdc_if.c ****   /* Set Application Buffers */
 157:USB_Device/App/usbd_cdc_if.c ****   USBD_CDC_SetTxBuffer(&hUsbDeviceFS, UserTxBufferFS, 0);
 158:USB_Device/App/usbd_cdc_if.c ****   USBD_CDC_SetRxBuffer(&hUsbDeviceFS, UserRxBufferFS);
 159:USB_Device/App/usbd_cdc_if.c ****   return (USBD_OK);
 160:USB_Device/App/usbd_cdc_if.c ****   /* USER CODE END 3 */
 161:USB_Device/App/usbd_cdc_if.c **** }
 162:USB_Device/App/usbd_cdc_if.c **** 
 163:USB_Device/App/usbd_cdc_if.c **** /**
 164:USB_Device/App/usbd_cdc_if.c ****   * @brief  DeInitializes the CDC media low layer
 165:USB_Device/App/usbd_cdc_if.c ****   * @retval USBD_OK if all operations are OK else USBD_FAIL
 166:USB_Device/App/usbd_cdc_if.c ****   */
 167:USB_Device/App/usbd_cdc_if.c **** static int8_t CDC_DeInit_FS(void)
 168:USB_Device/App/usbd_cdc_if.c **** {
  26              		.loc 1 168 1 view -0
  27              		.cfi_startproc
  28              		@ args = 0, pretend = 0, frame = 0
  29              		@ frame_needed = 0, uses_anonymous_args = 0
  30              		@ link register save eliminated.
 169:USB_Device/App/usbd_cdc_if.c ****   /* USER CODE BEGIN 4 */
 170:USB_Device/App/usbd_cdc_if.c ****   return (USBD_OK);
  31              		.loc 1 170 3 view .LVU1
 171:USB_Device/App/usbd_cdc_if.c ****   /* USER CODE END 4 */
 172:USB_Device/App/usbd_cdc_if.c **** }
  32              		.loc 1 172 1 is_stmt 0 view .LVU2
  33 0000 0020     		movs	r0, #0
  34              		@ sp needed
  35 0002 7047     		bx	lr
  36              		.cfi_endproc
  37              	.LFE501:
  39              		.section	.text.CDC_Control_FS,"ax",%progbits
  40              		.align	1
  41              		.syntax unified
  42              		.code	16
  43              		.thumb_func
  45              	CDC_Control_FS:
  46              	.LVL0:
  47              	.LFB502:
 173:USB_Device/App/usbd_cdc_if.c **** 
 174:USB_Device/App/usbd_cdc_if.c **** /**
 175:USB_Device/App/usbd_cdc_if.c ****   * @brief  Manage the CDC class requests
 176:USB_Device/App/usbd_cdc_if.c ****   * @param  cmd: Command code
 177:USB_Device/App/usbd_cdc_if.c ****   * @param  pbuf: Buffer containing command data (request parameters)
 178:USB_Device/App/usbd_cdc_if.c ****   * @param  length: Number of data to be sent (in bytes)
 179:USB_Device/App/usbd_cdc_if.c ****   * @retval Result of the operation: USBD_OK if all operations are OK else USBD_FAIL
 180:USB_Device/App/usbd_cdc_if.c ****   */
 181:USB_Device/App/usbd_cdc_if.c **** static int8_t CDC_Control_FS(uint8_t cmd, uint8_t* pbuf, uint16_t length)
 182:USB_Device/App/usbd_cdc_if.c **** {
  48              		.loc 1 182 1 is_stmt 1 view -0
  49              		.cfi_startproc
ARM GAS  /tmp/ccQTchd1.s 			page 5


  50              		@ args = 0, pretend = 0, frame = 0
  51              		@ frame_needed = 0, uses_anonymous_args = 0
  52              		@ link register save eliminated.
 183:USB_Device/App/usbd_cdc_if.c ****   /* USER CODE BEGIN 5 */
 184:USB_Device/App/usbd_cdc_if.c ****   switch(cmd)
  53              		.loc 1 184 3 view .LVU4
 185:USB_Device/App/usbd_cdc_if.c ****   {
 186:USB_Device/App/usbd_cdc_if.c ****     case CDC_SEND_ENCAPSULATED_COMMAND:
 187:USB_Device/App/usbd_cdc_if.c **** 
 188:USB_Device/App/usbd_cdc_if.c ****     break;
 189:USB_Device/App/usbd_cdc_if.c **** 
 190:USB_Device/App/usbd_cdc_if.c ****     case CDC_GET_ENCAPSULATED_RESPONSE:
 191:USB_Device/App/usbd_cdc_if.c **** 
 192:USB_Device/App/usbd_cdc_if.c ****     break;
 193:USB_Device/App/usbd_cdc_if.c **** 
 194:USB_Device/App/usbd_cdc_if.c ****     case CDC_SET_COMM_FEATURE:
 195:USB_Device/App/usbd_cdc_if.c **** 
 196:USB_Device/App/usbd_cdc_if.c ****     break;
 197:USB_Device/App/usbd_cdc_if.c **** 
 198:USB_Device/App/usbd_cdc_if.c ****     case CDC_GET_COMM_FEATURE:
 199:USB_Device/App/usbd_cdc_if.c **** 
 200:USB_Device/App/usbd_cdc_if.c ****     break;
 201:USB_Device/App/usbd_cdc_if.c **** 
 202:USB_Device/App/usbd_cdc_if.c ****     case CDC_CLEAR_COMM_FEATURE:
 203:USB_Device/App/usbd_cdc_if.c **** 
 204:USB_Device/App/usbd_cdc_if.c ****     break;
 205:USB_Device/App/usbd_cdc_if.c **** 
 206:USB_Device/App/usbd_cdc_if.c ****   /*******************************************************************************/
 207:USB_Device/App/usbd_cdc_if.c ****   /* Line Coding Structure                                                       */
 208:USB_Device/App/usbd_cdc_if.c ****   /*-----------------------------------------------------------------------------*/
 209:USB_Device/App/usbd_cdc_if.c ****   /* Offset | Field       | Size | Value  | Description                          */
 210:USB_Device/App/usbd_cdc_if.c ****   /* 0      | dwDTERate   |   4  | Number |Data terminal rate, in bits per second*/
 211:USB_Device/App/usbd_cdc_if.c ****   /* 4      | bCharFormat |   1  | Number | Stop bits                            */
 212:USB_Device/App/usbd_cdc_if.c ****   /*                                        0 - 1 Stop bit                       */
 213:USB_Device/App/usbd_cdc_if.c ****   /*                                        1 - 1.5 Stop bits                    */
 214:USB_Device/App/usbd_cdc_if.c ****   /*                                        2 - 2 Stop bits                      */
 215:USB_Device/App/usbd_cdc_if.c ****   /* 5      | bParityType |  1   | Number | Parity                               */
 216:USB_Device/App/usbd_cdc_if.c ****   /*                                        0 - None                             */
 217:USB_Device/App/usbd_cdc_if.c ****   /*                                        1 - Odd                              */
 218:USB_Device/App/usbd_cdc_if.c ****   /*                                        2 - Even                             */
 219:USB_Device/App/usbd_cdc_if.c ****   /*                                        3 - Mark                             */
 220:USB_Device/App/usbd_cdc_if.c ****   /*                                        4 - Space                            */
 221:USB_Device/App/usbd_cdc_if.c ****   /* 6      | bDataBits  |   1   | Number Data bits (5, 6, 7, 8 or 16).          */
 222:USB_Device/App/usbd_cdc_if.c ****   /*******************************************************************************/
 223:USB_Device/App/usbd_cdc_if.c ****     case CDC_SET_LINE_CODING:
 224:USB_Device/App/usbd_cdc_if.c **** 
 225:USB_Device/App/usbd_cdc_if.c ****     break;
 226:USB_Device/App/usbd_cdc_if.c **** 
 227:USB_Device/App/usbd_cdc_if.c ****     case CDC_GET_LINE_CODING:
 228:USB_Device/App/usbd_cdc_if.c **** 
 229:USB_Device/App/usbd_cdc_if.c ****     break;
 230:USB_Device/App/usbd_cdc_if.c **** 
 231:USB_Device/App/usbd_cdc_if.c ****     case CDC_SET_CONTROL_LINE_STATE:
 232:USB_Device/App/usbd_cdc_if.c **** 
 233:USB_Device/App/usbd_cdc_if.c ****     break;
 234:USB_Device/App/usbd_cdc_if.c **** 
 235:USB_Device/App/usbd_cdc_if.c ****     case CDC_SEND_BREAK:
ARM GAS  /tmp/ccQTchd1.s 			page 6


 236:USB_Device/App/usbd_cdc_if.c **** 
 237:USB_Device/App/usbd_cdc_if.c ****     break;
 238:USB_Device/App/usbd_cdc_if.c **** 
 239:USB_Device/App/usbd_cdc_if.c ****   default:
 240:USB_Device/App/usbd_cdc_if.c ****     break;
  54              		.loc 1 240 5 view .LVU5
 241:USB_Device/App/usbd_cdc_if.c ****   }
 242:USB_Device/App/usbd_cdc_if.c **** 
 243:USB_Device/App/usbd_cdc_if.c ****   return (USBD_OK);
  55              		.loc 1 243 3 view .LVU6
 244:USB_Device/App/usbd_cdc_if.c ****   /* USER CODE END 5 */
 245:USB_Device/App/usbd_cdc_if.c **** }
  56              		.loc 1 245 1 is_stmt 0 view .LVU7
  57 0000 0020     		movs	r0, #0
  58              	.LVL1:
  59              		.loc 1 245 1 view .LVU8
  60              		@ sp needed
  61 0002 7047     		bx	lr
  62              		.cfi_endproc
  63              	.LFE502:
  65              		.section	.text.CDC_TransmitCplt_FS,"ax",%progbits
  66              		.align	1
  67              		.syntax unified
  68              		.code	16
  69              		.thumb_func
  71              	CDC_TransmitCplt_FS:
  72              	.LVL2:
  73              	.LFB505:
 246:USB_Device/App/usbd_cdc_if.c **** 
 247:USB_Device/App/usbd_cdc_if.c **** /**
 248:USB_Device/App/usbd_cdc_if.c ****   * @brief  Data received over USB OUT endpoint are sent over CDC interface
 249:USB_Device/App/usbd_cdc_if.c ****   *         through this function.
 250:USB_Device/App/usbd_cdc_if.c ****   *
 251:USB_Device/App/usbd_cdc_if.c ****   *         @note
 252:USB_Device/App/usbd_cdc_if.c ****   *         This function will issue a NAK packet on any OUT packet received on
 253:USB_Device/App/usbd_cdc_if.c ****   *         USB endpoint until exiting this function. If you exit this function
 254:USB_Device/App/usbd_cdc_if.c ****   *         before transfer is complete on CDC interface (ie. using DMA controller)
 255:USB_Device/App/usbd_cdc_if.c ****   *         it will result in receiving more data while previous ones are still
 256:USB_Device/App/usbd_cdc_if.c ****   *         not sent.
 257:USB_Device/App/usbd_cdc_if.c ****   *
 258:USB_Device/App/usbd_cdc_if.c ****   * @param  Buf: Buffer of data to be received
 259:USB_Device/App/usbd_cdc_if.c ****   * @param  Len: Number of data received (in bytes)
 260:USB_Device/App/usbd_cdc_if.c ****   * @retval Result of the operation: USBD_OK if all operations are OK else USBD_FAIL
 261:USB_Device/App/usbd_cdc_if.c ****   */
 262:USB_Device/App/usbd_cdc_if.c **** static int8_t CDC_Receive_FS(uint8_t* Buf, uint32_t *Len)
 263:USB_Device/App/usbd_cdc_if.c **** {
 264:USB_Device/App/usbd_cdc_if.c ****   /* USER CODE BEGIN 6 */
 265:USB_Device/App/usbd_cdc_if.c ****   // Accumulate received data for CAN protocol processing
 266:USB_Device/App/usbd_cdc_if.c ****   if (usb_rx_index + *Len < USB_BUFFER_SIZE) {
 267:USB_Device/App/usbd_cdc_if.c ****     memcpy(&usb_rx_buffer[usb_rx_index], Buf, *Len);
 268:USB_Device/App/usbd_cdc_if.c ****     usb_rx_index += *Len;
 269:USB_Device/App/usbd_cdc_if.c ****   } else {
 270:USB_Device/App/usbd_cdc_if.c ****     // Buffer overflow, reset index
 271:USB_Device/App/usbd_cdc_if.c ****     usb_rx_index = 0;
 272:USB_Device/App/usbd_cdc_if.c ****     memcpy(&usb_rx_buffer[usb_rx_index], Buf, *Len);
 273:USB_Device/App/usbd_cdc_if.c ****     // Optionally, you can handle the overflow case here (e.g., log an error)
 274:USB_Device/App/usbd_cdc_if.c ****   }
ARM GAS  /tmp/ccQTchd1.s 			page 7


 275:USB_Device/App/usbd_cdc_if.c **** 
 276:USB_Device/App/usbd_cdc_if.c ****   USBD_CDC_SetRxBuffer(&hUsbDeviceFS, &Buf[0]);
 277:USB_Device/App/usbd_cdc_if.c ****   USBD_CDC_ReceivePacket(&hUsbDeviceFS);
 278:USB_Device/App/usbd_cdc_if.c ****   return (USBD_OK);
 279:USB_Device/App/usbd_cdc_if.c ****   /* USER CODE END 6 */
 280:USB_Device/App/usbd_cdc_if.c **** }
 281:USB_Device/App/usbd_cdc_if.c **** 
 282:USB_Device/App/usbd_cdc_if.c **** /**
 283:USB_Device/App/usbd_cdc_if.c ****   * @brief  CDC_Transmit_FS
 284:USB_Device/App/usbd_cdc_if.c ****   *         Data to send over USB IN endpoint are sent over CDC interface
 285:USB_Device/App/usbd_cdc_if.c ****   *         through this function.
 286:USB_Device/App/usbd_cdc_if.c ****   *         @note
 287:USB_Device/App/usbd_cdc_if.c ****   *
 288:USB_Device/App/usbd_cdc_if.c ****   *
 289:USB_Device/App/usbd_cdc_if.c ****   * @param  Buf: Buffer of data to be sent
 290:USB_Device/App/usbd_cdc_if.c ****   * @param  Len: Number of data to be sent (in bytes)
 291:USB_Device/App/usbd_cdc_if.c ****   * @retval USBD_OK if all operations are OK else USBD_FAIL or USBD_BUSY
 292:USB_Device/App/usbd_cdc_if.c ****   */
 293:USB_Device/App/usbd_cdc_if.c **** uint8_t CDC_Transmit_FS(uint8_t* Buf, uint16_t Len)
 294:USB_Device/App/usbd_cdc_if.c **** {
 295:USB_Device/App/usbd_cdc_if.c ****   uint8_t result = USBD_OK;
 296:USB_Device/App/usbd_cdc_if.c ****   /* USER CODE BEGIN 7 */
 297:USB_Device/App/usbd_cdc_if.c ****   USBD_CDC_HandleTypeDef *hcdc = (USBD_CDC_HandleTypeDef*)hUsbDeviceFS.pClassData;
 298:USB_Device/App/usbd_cdc_if.c ****   if (hcdc->TxState != 0){
 299:USB_Device/App/usbd_cdc_if.c ****     return USBD_BUSY;
 300:USB_Device/App/usbd_cdc_if.c ****   }
 301:USB_Device/App/usbd_cdc_if.c ****   USBD_CDC_SetTxBuffer(&hUsbDeviceFS, Buf, Len);
 302:USB_Device/App/usbd_cdc_if.c ****   result = USBD_CDC_TransmitPacket(&hUsbDeviceFS);
 303:USB_Device/App/usbd_cdc_if.c ****   /* USER CODE END 7 */
 304:USB_Device/App/usbd_cdc_if.c ****   return result;
 305:USB_Device/App/usbd_cdc_if.c **** }
 306:USB_Device/App/usbd_cdc_if.c **** 
 307:USB_Device/App/usbd_cdc_if.c **** /**
 308:USB_Device/App/usbd_cdc_if.c ****   * @brief  CDC_TransmitCplt_FS
 309:USB_Device/App/usbd_cdc_if.c ****   *         Data transmitted callback
 310:USB_Device/App/usbd_cdc_if.c ****   *
 311:USB_Device/App/usbd_cdc_if.c ****   *         @note
 312:USB_Device/App/usbd_cdc_if.c ****   *         This function is IN transfer complete callback used to inform user that
 313:USB_Device/App/usbd_cdc_if.c ****   *         the submitted Data is successfully sent over USB.
 314:USB_Device/App/usbd_cdc_if.c ****   *
 315:USB_Device/App/usbd_cdc_if.c ****   * @param  Buf: Buffer of data to be received
 316:USB_Device/App/usbd_cdc_if.c ****   * @param  Len: Number of data received (in bytes)
 317:USB_Device/App/usbd_cdc_if.c ****   * @retval Result of the operation: USBD_OK if all operations are OK else USBD_FAIL
 318:USB_Device/App/usbd_cdc_if.c ****   */
 319:USB_Device/App/usbd_cdc_if.c **** static int8_t CDC_TransmitCplt_FS(uint8_t *Buf, uint32_t *Len, uint8_t epnum)
 320:USB_Device/App/usbd_cdc_if.c **** {
  74              		.loc 1 320 1 is_stmt 1 view -0
  75              		.cfi_startproc
  76              		@ args = 0, pretend = 0, frame = 0
  77              		@ frame_needed = 0, uses_anonymous_args = 0
  78              		@ link register save eliminated.
 321:USB_Device/App/usbd_cdc_if.c ****   uint8_t result = USBD_OK;
  79              		.loc 1 321 3 view .LVU10
 322:USB_Device/App/usbd_cdc_if.c ****   /* USER CODE BEGIN 13 */
 323:USB_Device/App/usbd_cdc_if.c ****   UNUSED(Buf);
  80              		.loc 1 323 3 view .LVU11
 324:USB_Device/App/usbd_cdc_if.c ****   UNUSED(Len);
ARM GAS  /tmp/ccQTchd1.s 			page 8


  81              		.loc 1 324 3 view .LVU12
 325:USB_Device/App/usbd_cdc_if.c ****   UNUSED(epnum);
  82              		.loc 1 325 3 view .LVU13
 326:USB_Device/App/usbd_cdc_if.c ****   /* USER CODE END 13 */
 327:USB_Device/App/usbd_cdc_if.c ****   return result;
  83              		.loc 1 327 3 view .LVU14
 328:USB_Device/App/usbd_cdc_if.c **** }
  84              		.loc 1 328 1 is_stmt 0 view .LVU15
  85 0000 0020     		movs	r0, #0
  86              	.LVL3:
  87              		.loc 1 328 1 view .LVU16
  88              		@ sp needed
  89 0002 7047     		bx	lr
  90              		.cfi_endproc
  91              	.LFE505:
  93              		.section	.text.CDC_Receive_FS,"ax",%progbits
  94              		.align	1
  95              		.syntax unified
  96              		.code	16
  97              		.thumb_func
  99              	CDC_Receive_FS:
 100              	.LVL4:
 101              	.LFB503:
 263:USB_Device/App/usbd_cdc_if.c ****   /* USER CODE BEGIN 6 */
 102              		.loc 1 263 1 is_stmt 1 view -0
 103              		.cfi_startproc
 104              		@ args = 0, pretend = 0, frame = 0
 105              		@ frame_needed = 0, uses_anonymous_args = 0
 263:USB_Device/App/usbd_cdc_if.c ****   /* USER CODE BEGIN 6 */
 106              		.loc 1 263 1 is_stmt 0 view .LVU18
 107 0000 70B5     		push	{r4, r5, r6, lr}
 108              	.LCFI0:
 109              		.cfi_def_cfa_offset 16
 110              		.cfi_offset 4, -16
 111              		.cfi_offset 5, -12
 112              		.cfi_offset 6, -8
 113              		.cfi_offset 14, -4
 114 0002 0500     		movs	r5, r0
 115 0004 0C00     		movs	r4, r1
 266:USB_Device/App/usbd_cdc_if.c ****     memcpy(&usb_rx_buffer[usb_rx_index], Buf, *Len);
 116              		.loc 1 266 3 is_stmt 1 view .LVU19
 266:USB_Device/App/usbd_cdc_if.c ****     memcpy(&usb_rx_buffer[usb_rx_index], Buf, *Len);
 117              		.loc 1 266 20 is_stmt 0 view .LVU20
 118 0006 104B     		ldr	r3, .L7
 119 0008 1E78     		ldrb	r6, [r3]
 266:USB_Device/App/usbd_cdc_if.c ****     memcpy(&usb_rx_buffer[usb_rx_index], Buf, *Len);
 120              		.loc 1 266 22 view .LVU21
 121 000a 0A68     		ldr	r2, [r1]
 266:USB_Device/App/usbd_cdc_if.c ****     memcpy(&usb_rx_buffer[usb_rx_index], Buf, *Len);
 122              		.loc 1 266 20 view .LVU22
 123 000c B318     		adds	r3, r6, r2
 266:USB_Device/App/usbd_cdc_if.c ****     memcpy(&usb_rx_buffer[usb_rx_index], Buf, *Len);
 124              		.loc 1 266 6 view .LVU23
 125 000e 3F2B     		cmp	r3, #63
 126 0010 12D8     		bhi	.L5
 267:USB_Device/App/usbd_cdc_if.c ****     usb_rx_index += *Len;
 127              		.loc 1 267 5 is_stmt 1 view .LVU24
ARM GAS  /tmp/ccQTchd1.s 			page 9


 267:USB_Device/App/usbd_cdc_if.c ****     usb_rx_index += *Len;
 128              		.loc 1 267 12 is_stmt 0 view .LVU25
 129 0012 0E48     		ldr	r0, .L7+4
 130              	.LVL5:
 267:USB_Device/App/usbd_cdc_if.c ****     usb_rx_index += *Len;
 131              		.loc 1 267 12 view .LVU26
 132 0014 3018     		adds	r0, r6, r0
 267:USB_Device/App/usbd_cdc_if.c ****     usb_rx_index += *Len;
 133              		.loc 1 267 5 view .LVU27
 134 0016 2900     		movs	r1, r5
 135              	.LVL6:
 267:USB_Device/App/usbd_cdc_if.c ****     usb_rx_index += *Len;
 136              		.loc 1 267 5 view .LVU28
 137 0018 FFF7FEFF 		bl	memcpy
 138              	.LVL7:
 268:USB_Device/App/usbd_cdc_if.c ****   } else {
 139              		.loc 1 268 5 is_stmt 1 view .LVU29
 268:USB_Device/App/usbd_cdc_if.c ****   } else {
 140              		.loc 1 268 21 is_stmt 0 view .LVU30
 141 001c 2268     		ldr	r2, [r4]
 268:USB_Device/App/usbd_cdc_if.c ****   } else {
 142              		.loc 1 268 18 view .LVU31
 143 001e 0A4B     		ldr	r3, .L7
 144 0020 B618     		adds	r6, r6, r2
 145 0022 1E70     		strb	r6, [r3]
 146              	.L6:
 276:USB_Device/App/usbd_cdc_if.c ****   USBD_CDC_ReceivePacket(&hUsbDeviceFS);
 147              		.loc 1 276 3 is_stmt 1 view .LVU32
 148 0024 0A4C     		ldr	r4, .L7+8
 149              	.LVL8:
 276:USB_Device/App/usbd_cdc_if.c ****   USBD_CDC_ReceivePacket(&hUsbDeviceFS);
 150              		.loc 1 276 3 is_stmt 0 view .LVU33
 151 0026 2900     		movs	r1, r5
 152 0028 2000     		movs	r0, r4
 153 002a FFF7FEFF 		bl	USBD_CDC_SetRxBuffer
 154              	.LVL9:
 277:USB_Device/App/usbd_cdc_if.c ****   return (USBD_OK);
 155              		.loc 1 277 3 is_stmt 1 view .LVU34
 156 002e 2000     		movs	r0, r4
 157 0030 FFF7FEFF 		bl	USBD_CDC_ReceivePacket
 158              	.LVL10:
 278:USB_Device/App/usbd_cdc_if.c ****   /* USER CODE END 6 */
 159              		.loc 1 278 3 view .LVU35
 280:USB_Device/App/usbd_cdc_if.c **** 
 160              		.loc 1 280 1 is_stmt 0 view .LVU36
 161 0034 0020     		movs	r0, #0
 162              		@ sp needed
 163              	.LVL11:
 280:USB_Device/App/usbd_cdc_if.c **** 
 164              		.loc 1 280 1 view .LVU37
 165 0036 70BD     		pop	{r4, r5, r6, pc}
 166              	.LVL12:
 167              	.L5:
 271:USB_Device/App/usbd_cdc_if.c ****     memcpy(&usb_rx_buffer[usb_rx_index], Buf, *Len);
 168              		.loc 1 271 5 is_stmt 1 view .LVU38
 271:USB_Device/App/usbd_cdc_if.c ****     memcpy(&usb_rx_buffer[usb_rx_index], Buf, *Len);
 169              		.loc 1 271 18 is_stmt 0 view .LVU39
ARM GAS  /tmp/ccQTchd1.s 			page 10


 170 0038 034B     		ldr	r3, .L7
 171 003a 0021     		movs	r1, #0
 172              	.LVL13:
 271:USB_Device/App/usbd_cdc_if.c ****     memcpy(&usb_rx_buffer[usb_rx_index], Buf, *Len);
 173              		.loc 1 271 18 view .LVU40
 174 003c 1970     		strb	r1, [r3]
 272:USB_Device/App/usbd_cdc_if.c ****     // Optionally, you can handle the overflow case here (e.g., log an error)
 175              		.loc 1 272 5 is_stmt 1 view .LVU41
 176 003e 0348     		ldr	r0, .L7+4
 177              	.LVL14:
 272:USB_Device/App/usbd_cdc_if.c ****     // Optionally, you can handle the overflow case here (e.g., log an error)
 178              		.loc 1 272 5 is_stmt 0 view .LVU42
 179 0040 2900     		movs	r1, r5
 180 0042 FFF7FEFF 		bl	memcpy
 181              	.LVL15:
 182 0046 EDE7     		b	.L6
 183              	.L8:
 184              		.align	2
 185              	.L7:
 186 0048 00000000 		.word	usb_rx_index
 187 004c 00000000 		.word	usb_rx_buffer
 188 0050 00000000 		.word	hUsbDeviceFS
 189              		.cfi_endproc
 190              	.LFE503:
 192              		.section	.text.CDC_Init_FS,"ax",%progbits
 193              		.align	1
 194              		.syntax unified
 195              		.code	16
 196              		.thumb_func
 198              	CDC_Init_FS:
 199              	.LFB500:
 154:USB_Device/App/usbd_cdc_if.c ****   /* USER CODE BEGIN 3 */
 200              		.loc 1 154 1 is_stmt 1 view -0
 201              		.cfi_startproc
 202              		@ args = 0, pretend = 0, frame = 0
 203              		@ frame_needed = 0, uses_anonymous_args = 0
 204 0000 10B5     		push	{r4, lr}
 205              	.LCFI1:
 206              		.cfi_def_cfa_offset 8
 207              		.cfi_offset 4, -8
 208              		.cfi_offset 14, -4
 157:USB_Device/App/usbd_cdc_if.c ****   USBD_CDC_SetRxBuffer(&hUsbDeviceFS, UserRxBufferFS);
 209              		.loc 1 157 3 view .LVU44
 210 0002 0649     		ldr	r1, .L10
 211 0004 064C     		ldr	r4, .L10+4
 212 0006 0022     		movs	r2, #0
 213 0008 2000     		movs	r0, r4
 214 000a FFF7FEFF 		bl	USBD_CDC_SetTxBuffer
 215              	.LVL16:
 158:USB_Device/App/usbd_cdc_if.c ****   return (USBD_OK);
 216              		.loc 1 158 3 view .LVU45
 217 000e 0549     		ldr	r1, .L10+8
 218 0010 2000     		movs	r0, r4
 219 0012 FFF7FEFF 		bl	USBD_CDC_SetRxBuffer
 220              	.LVL17:
 159:USB_Device/App/usbd_cdc_if.c ****   /* USER CODE END 3 */
 221              		.loc 1 159 3 view .LVU46
ARM GAS  /tmp/ccQTchd1.s 			page 11


 161:USB_Device/App/usbd_cdc_if.c **** 
 222              		.loc 1 161 1 is_stmt 0 view .LVU47
 223 0016 0020     		movs	r0, #0
 224              		@ sp needed
 225 0018 10BD     		pop	{r4, pc}
 226              	.L11:
 227 001a C046     		.align	2
 228              	.L10:
 229 001c 00000000 		.word	UserTxBufferFS
 230 0020 00000000 		.word	hUsbDeviceFS
 231 0024 00000000 		.word	UserRxBufferFS
 232              		.cfi_endproc
 233              	.LFE500:
 235              		.section	.text.CDC_Transmit_FS,"ax",%progbits
 236              		.align	1
 237              		.global	CDC_Transmit_FS
 238              		.syntax unified
 239              		.code	16
 240              		.thumb_func
 242              	CDC_Transmit_FS:
 243              	.LVL18:
 244              	.LFB504:
 294:USB_Device/App/usbd_cdc_if.c ****   uint8_t result = USBD_OK;
 245              		.loc 1 294 1 is_stmt 1 view -0
 246              		.cfi_startproc
 247              		@ args = 0, pretend = 0, frame = 0
 248              		@ frame_needed = 0, uses_anonymous_args = 0
 294:USB_Device/App/usbd_cdc_if.c ****   uint8_t result = USBD_OK;
 249              		.loc 1 294 1 is_stmt 0 view .LVU49
 250 0000 10B5     		push	{r4, lr}
 251              	.LCFI2:
 252              		.cfi_def_cfa_offset 8
 253              		.cfi_offset 4, -8
 254              		.cfi_offset 14, -4
 255 0002 0A00     		movs	r2, r1
 295:USB_Device/App/usbd_cdc_if.c ****   /* USER CODE BEGIN 7 */
 256              		.loc 1 295 3 is_stmt 1 view .LVU50
 257              	.LVL19:
 297:USB_Device/App/usbd_cdc_if.c ****   if (hcdc->TxState != 0){
 258              		.loc 1 297 3 view .LVU51
 297:USB_Device/App/usbd_cdc_if.c ****   if (hcdc->TxState != 0){
 259              		.loc 1 297 27 is_stmt 0 view .LVU52
 260 0004 094B     		ldr	r3, .L16
 261 0006 AF21     		movs	r1, #175
 262              	.LVL20:
 297:USB_Device/App/usbd_cdc_if.c ****   if (hcdc->TxState != 0){
 263              		.loc 1 297 27 view .LVU53
 264 0008 8900     		lsls	r1, r1, #2
 265 000a 5958     		ldr	r1, [r3, r1]
 266              	.LVL21:
 298:USB_Device/App/usbd_cdc_if.c ****     return USBD_BUSY;
 267              		.loc 1 298 3 is_stmt 1 view .LVU54
 298:USB_Device/App/usbd_cdc_if.c ****     return USBD_BUSY;
 268              		.loc 1 298 11 is_stmt 0 view .LVU55
 269 000c 8523     		movs	r3, #133
 270 000e 9B00     		lsls	r3, r3, #2
 271 0010 CB58     		ldr	r3, [r1, r3]
ARM GAS  /tmp/ccQTchd1.s 			page 12


 298:USB_Device/App/usbd_cdc_if.c ****     return USBD_BUSY;
 272              		.loc 1 298 6 view .LVU56
 273 0012 002B     		cmp	r3, #0
 274 0014 01D0     		beq	.L15
 299:USB_Device/App/usbd_cdc_if.c ****   }
 275              		.loc 1 299 12 view .LVU57
 276 0016 0120     		movs	r0, #1
 277              	.LVL22:
 278              	.L13:
 305:USB_Device/App/usbd_cdc_if.c **** 
 279              		.loc 1 305 1 view .LVU58
 280              		@ sp needed
 281 0018 10BD     		pop	{r4, pc}
 282              	.LVL23:
 283              	.L15:
 301:USB_Device/App/usbd_cdc_if.c ****   result = USBD_CDC_TransmitPacket(&hUsbDeviceFS);
 284              		.loc 1 301 3 is_stmt 1 view .LVU59
 285 001a 044C     		ldr	r4, .L16
 286 001c 0100     		movs	r1, r0
 287              	.LVL24:
 301:USB_Device/App/usbd_cdc_if.c ****   result = USBD_CDC_TransmitPacket(&hUsbDeviceFS);
 288              		.loc 1 301 3 is_stmt 0 view .LVU60
 289 001e 2000     		movs	r0, r4
 290              	.LVL25:
 301:USB_Device/App/usbd_cdc_if.c ****   result = USBD_CDC_TransmitPacket(&hUsbDeviceFS);
 291              		.loc 1 301 3 view .LVU61
 292 0020 FFF7FEFF 		bl	USBD_CDC_SetTxBuffer
 293              	.LVL26:
 302:USB_Device/App/usbd_cdc_if.c ****   /* USER CODE END 7 */
 294              		.loc 1 302 3 is_stmt 1 view .LVU62
 302:USB_Device/App/usbd_cdc_if.c ****   /* USER CODE END 7 */
 295              		.loc 1 302 12 is_stmt 0 view .LVU63
 296 0024 2000     		movs	r0, r4
 297 0026 FFF7FEFF 		bl	USBD_CDC_TransmitPacket
 298              	.LVL27:
 304:USB_Device/App/usbd_cdc_if.c **** }
 299              		.loc 1 304 3 is_stmt 1 view .LVU64
 304:USB_Device/App/usbd_cdc_if.c **** }
 300              		.loc 1 304 10 is_stmt 0 view .LVU65
 301 002a F5E7     		b	.L13
 302              	.L17:
 303              		.align	2
 304              	.L16:
 305 002c 00000000 		.word	hUsbDeviceFS
 306              		.cfi_endproc
 307              	.LFE504:
 309              		.global	USBD_Interface_fops_FS
 310              		.section	.data.USBD_Interface_fops_FS,"aw"
 311              		.align	2
 314              	USBD_Interface_fops_FS:
 315 0000 00000000 		.word	CDC_Init_FS
 316 0004 00000000 		.word	CDC_DeInit_FS
 317 0008 00000000 		.word	CDC_Control_FS
 318 000c 00000000 		.word	CDC_Receive_FS
 319 0010 00000000 		.word	CDC_TransmitCplt_FS
 320              		.global	UserTxBufferFS
 321              		.section	.bss.UserTxBufferFS,"aw",%nobits
ARM GAS  /tmp/ccQTchd1.s 			page 13


 322              		.align	2
 325              	UserTxBufferFS:
 326 0000 00000000 		.space	2048
 326      00000000 
 326      00000000 
 326      00000000 
 326      00000000 
 327              		.global	UserRxBufferFS
 328              		.section	.bss.UserRxBufferFS,"aw",%nobits
 329              		.align	2
 332              	UserRxBufferFS:
 333 0000 00000000 		.space	2048
 333      00000000 
 333      00000000 
 333      00000000 
 333      00000000 
 334              		.text
 335              	.Letext0:
 336              		.file 2 "/usr/arm-none-eabi/include/machine/_default_types.h"
 337              		.file 3 "/usr/arm-none-eabi/include/sys/_stdint.h"
 338              		.file 4 "Middlewares/ST/STM32_USB_Device_Library/Core/Inc/usbd_def.h"
 339              		.file 5 "Middlewares/ST/STM32_USB_Device_Library/Class/CDC/Inc/usbd_cdc.h"
 340              		.file 6 "USB_Device/App/usbd_cdc_if.h"
 341              		.file 7 "Core/Inc/main.h"
 342              		.file 8 "/usr/arm-none-eabi/include/string.h"
 343              		.file 9 "Drivers/STM32G0xx_HAL_Driver/Inc/stm32g0xx_ll_dma.h"
 344              		.file 10 "<built-in>"
ARM GAS  /tmp/ccQTchd1.s 			page 14

