ARM GAS  /tmp/ccrU7oA5.s 			page 1


   1              		.cpu cortex-m0plus
   2              		.arch armv6s-m
   3              		.fpu softvfp
   4              		.eabi_attribute 20, 1
   5              		.eabi_attribute 21, 1
   6              		.eabi_attribute 23, 3
   7              		.eabi_attribute 24, 1
   8              		.eabi_attribute 25, 1
   9              		.eabi_attribute 26, 1
  10              		.eabi_attribute 30, 1
  11              		.eabi_attribute 34, 0
  12              		.eabi_attribute 18, 4
  13              		.file	"usbd_core.c"
  14              		.text
  15              	.Ltext0:
  16              		.cfi_sections	.debug_frame
  17              		.file 1 "Middlewares/ST/STM32_USB_Device_Library/Core/Src/usbd_core.c"
  18              		.section	.rodata.USBD_Init.str1.4,"aMS",%progbits,1
  19              		.align	2
  20              	.LC0:
  21 0000 4552524F 		.ascii	"ERROR: \000"
  21      523A2000 
  22              		.align	2
  23              	.LC2:
  24 0008 496E7661 		.ascii	"Invalid Device handle\000"
  24      6C696420 
  24      44657669 
  24      63652068 
  24      616E646C 
  25              		.section	.text.USBD_Init,"ax",%progbits
  26              		.align	1
  27              		.global	USBD_Init
  28              		.syntax unified
  29              		.code	16
  30              		.thumb_func
  32              	USBD_Init:
  33              	.LVL0:
  34              	.LFB500:
   1:Middlewares/ST/STM32_USB_Device_Library/Core/Src/usbd_core.c **** /**
   2:Middlewares/ST/STM32_USB_Device_Library/Core/Src/usbd_core.c ****   ******************************************************************************
   3:Middlewares/ST/STM32_USB_Device_Library/Core/Src/usbd_core.c ****   * @file    usbd_core.c
   4:Middlewares/ST/STM32_USB_Device_Library/Core/Src/usbd_core.c ****   * @author  MCD Application Team
   5:Middlewares/ST/STM32_USB_Device_Library/Core/Src/usbd_core.c ****   * @brief   This file provides all the USBD core functions.
   6:Middlewares/ST/STM32_USB_Device_Library/Core/Src/usbd_core.c ****   ******************************************************************************
   7:Middlewares/ST/STM32_USB_Device_Library/Core/Src/usbd_core.c ****   * @attention
   8:Middlewares/ST/STM32_USB_Device_Library/Core/Src/usbd_core.c ****   *
   9:Middlewares/ST/STM32_USB_Device_Library/Core/Src/usbd_core.c ****   * Copyright (c) 2015 STMicroelectronics.
  10:Middlewares/ST/STM32_USB_Device_Library/Core/Src/usbd_core.c ****   * All rights reserved.
  11:Middlewares/ST/STM32_USB_Device_Library/Core/Src/usbd_core.c ****   *
  12:Middlewares/ST/STM32_USB_Device_Library/Core/Src/usbd_core.c ****   * This software is licensed under terms that can be found in the LICENSE file
  13:Middlewares/ST/STM32_USB_Device_Library/Core/Src/usbd_core.c ****   * in the root directory of this software component.
  14:Middlewares/ST/STM32_USB_Device_Library/Core/Src/usbd_core.c ****   * If no LICENSE file comes with this software, it is provided AS-IS.
  15:Middlewares/ST/STM32_USB_Device_Library/Core/Src/usbd_core.c ****   *
  16:Middlewares/ST/STM32_USB_Device_Library/Core/Src/usbd_core.c ****   ******************************************************************************
  17:Middlewares/ST/STM32_USB_Device_Library/Core/Src/usbd_core.c ****   */
  18:Middlewares/ST/STM32_USB_Device_Library/Core/Src/usbd_core.c **** 
  19:Middlewares/ST/STM32_USB_Device_Library/Core/Src/usbd_core.c **** /* Includes ------------------------------------------------------------------*/
ARM GAS  /tmp/ccrU7oA5.s 			page 2


  20:Middlewares/ST/STM32_USB_Device_Library/Core/Src/usbd_core.c **** #include "usbd_core.h"
  21:Middlewares/ST/STM32_USB_Device_Library/Core/Src/usbd_core.c **** 
  22:Middlewares/ST/STM32_USB_Device_Library/Core/Src/usbd_core.c **** #ifdef USE_USBD_COMPOSITE
  23:Middlewares/ST/STM32_USB_Device_Library/Core/Src/usbd_core.c **** #include "usbd_composite_builder.h"
  24:Middlewares/ST/STM32_USB_Device_Library/Core/Src/usbd_core.c **** #endif /* USE_USBD_COMPOSITE */
  25:Middlewares/ST/STM32_USB_Device_Library/Core/Src/usbd_core.c **** 
  26:Middlewares/ST/STM32_USB_Device_Library/Core/Src/usbd_core.c **** /** @addtogroup STM32_USBD_DEVICE_LIBRARY
  27:Middlewares/ST/STM32_USB_Device_Library/Core/Src/usbd_core.c ****   * @{
  28:Middlewares/ST/STM32_USB_Device_Library/Core/Src/usbd_core.c ****   */
  29:Middlewares/ST/STM32_USB_Device_Library/Core/Src/usbd_core.c **** 
  30:Middlewares/ST/STM32_USB_Device_Library/Core/Src/usbd_core.c **** 
  31:Middlewares/ST/STM32_USB_Device_Library/Core/Src/usbd_core.c **** /** @defgroup USBD_CORE
  32:Middlewares/ST/STM32_USB_Device_Library/Core/Src/usbd_core.c ****   * @brief usbd core module
  33:Middlewares/ST/STM32_USB_Device_Library/Core/Src/usbd_core.c ****   * @{
  34:Middlewares/ST/STM32_USB_Device_Library/Core/Src/usbd_core.c ****   */
  35:Middlewares/ST/STM32_USB_Device_Library/Core/Src/usbd_core.c **** 
  36:Middlewares/ST/STM32_USB_Device_Library/Core/Src/usbd_core.c **** /** @defgroup USBD_CORE_Private_TypesDefinitions
  37:Middlewares/ST/STM32_USB_Device_Library/Core/Src/usbd_core.c ****   * @{
  38:Middlewares/ST/STM32_USB_Device_Library/Core/Src/usbd_core.c ****   */
  39:Middlewares/ST/STM32_USB_Device_Library/Core/Src/usbd_core.c **** 
  40:Middlewares/ST/STM32_USB_Device_Library/Core/Src/usbd_core.c **** /**
  41:Middlewares/ST/STM32_USB_Device_Library/Core/Src/usbd_core.c ****   * @}
  42:Middlewares/ST/STM32_USB_Device_Library/Core/Src/usbd_core.c ****   */
  43:Middlewares/ST/STM32_USB_Device_Library/Core/Src/usbd_core.c **** 
  44:Middlewares/ST/STM32_USB_Device_Library/Core/Src/usbd_core.c **** 
  45:Middlewares/ST/STM32_USB_Device_Library/Core/Src/usbd_core.c **** /** @defgroup USBD_CORE_Private_Defines
  46:Middlewares/ST/STM32_USB_Device_Library/Core/Src/usbd_core.c ****   * @{
  47:Middlewares/ST/STM32_USB_Device_Library/Core/Src/usbd_core.c ****   */
  48:Middlewares/ST/STM32_USB_Device_Library/Core/Src/usbd_core.c **** 
  49:Middlewares/ST/STM32_USB_Device_Library/Core/Src/usbd_core.c **** /**
  50:Middlewares/ST/STM32_USB_Device_Library/Core/Src/usbd_core.c ****   * @}
  51:Middlewares/ST/STM32_USB_Device_Library/Core/Src/usbd_core.c ****   */
  52:Middlewares/ST/STM32_USB_Device_Library/Core/Src/usbd_core.c **** 
  53:Middlewares/ST/STM32_USB_Device_Library/Core/Src/usbd_core.c **** 
  54:Middlewares/ST/STM32_USB_Device_Library/Core/Src/usbd_core.c **** /** @defgroup USBD_CORE_Private_Macros
  55:Middlewares/ST/STM32_USB_Device_Library/Core/Src/usbd_core.c ****   * @{
  56:Middlewares/ST/STM32_USB_Device_Library/Core/Src/usbd_core.c ****   */
  57:Middlewares/ST/STM32_USB_Device_Library/Core/Src/usbd_core.c **** 
  58:Middlewares/ST/STM32_USB_Device_Library/Core/Src/usbd_core.c **** /**
  59:Middlewares/ST/STM32_USB_Device_Library/Core/Src/usbd_core.c ****   * @}
  60:Middlewares/ST/STM32_USB_Device_Library/Core/Src/usbd_core.c ****   */
  61:Middlewares/ST/STM32_USB_Device_Library/Core/Src/usbd_core.c **** 
  62:Middlewares/ST/STM32_USB_Device_Library/Core/Src/usbd_core.c **** 
  63:Middlewares/ST/STM32_USB_Device_Library/Core/Src/usbd_core.c **** /** @defgroup USBD_CORE_Private_FunctionPrototypes
  64:Middlewares/ST/STM32_USB_Device_Library/Core/Src/usbd_core.c ****   * @{
  65:Middlewares/ST/STM32_USB_Device_Library/Core/Src/usbd_core.c ****   */
  66:Middlewares/ST/STM32_USB_Device_Library/Core/Src/usbd_core.c **** 
  67:Middlewares/ST/STM32_USB_Device_Library/Core/Src/usbd_core.c **** /**
  68:Middlewares/ST/STM32_USB_Device_Library/Core/Src/usbd_core.c ****   * @}
  69:Middlewares/ST/STM32_USB_Device_Library/Core/Src/usbd_core.c ****   */
  70:Middlewares/ST/STM32_USB_Device_Library/Core/Src/usbd_core.c **** 
  71:Middlewares/ST/STM32_USB_Device_Library/Core/Src/usbd_core.c **** /** @defgroup USBD_CORE_Private_Variables
  72:Middlewares/ST/STM32_USB_Device_Library/Core/Src/usbd_core.c ****   * @{
  73:Middlewares/ST/STM32_USB_Device_Library/Core/Src/usbd_core.c ****   */
  74:Middlewares/ST/STM32_USB_Device_Library/Core/Src/usbd_core.c **** 
  75:Middlewares/ST/STM32_USB_Device_Library/Core/Src/usbd_core.c **** /**
  76:Middlewares/ST/STM32_USB_Device_Library/Core/Src/usbd_core.c ****   * @}
ARM GAS  /tmp/ccrU7oA5.s 			page 3


  77:Middlewares/ST/STM32_USB_Device_Library/Core/Src/usbd_core.c ****   */
  78:Middlewares/ST/STM32_USB_Device_Library/Core/Src/usbd_core.c **** 
  79:Middlewares/ST/STM32_USB_Device_Library/Core/Src/usbd_core.c **** 
  80:Middlewares/ST/STM32_USB_Device_Library/Core/Src/usbd_core.c **** /** @defgroup USBD_CORE_Private_Functions
  81:Middlewares/ST/STM32_USB_Device_Library/Core/Src/usbd_core.c ****   * @{
  82:Middlewares/ST/STM32_USB_Device_Library/Core/Src/usbd_core.c ****   */
  83:Middlewares/ST/STM32_USB_Device_Library/Core/Src/usbd_core.c **** 
  84:Middlewares/ST/STM32_USB_Device_Library/Core/Src/usbd_core.c **** /**
  85:Middlewares/ST/STM32_USB_Device_Library/Core/Src/usbd_core.c ****   * @brief  USBD_Init
  86:Middlewares/ST/STM32_USB_Device_Library/Core/Src/usbd_core.c ****   *         Initializes the device stack and load the class driver
  87:Middlewares/ST/STM32_USB_Device_Library/Core/Src/usbd_core.c ****   * @param  pdev: device instance
  88:Middlewares/ST/STM32_USB_Device_Library/Core/Src/usbd_core.c ****   * @param  pdesc: Descriptor structure address
  89:Middlewares/ST/STM32_USB_Device_Library/Core/Src/usbd_core.c ****   * @param  id: Low level core index
  90:Middlewares/ST/STM32_USB_Device_Library/Core/Src/usbd_core.c ****   * @retval None
  91:Middlewares/ST/STM32_USB_Device_Library/Core/Src/usbd_core.c ****   */
  92:Middlewares/ST/STM32_USB_Device_Library/Core/Src/usbd_core.c **** USBD_StatusTypeDef USBD_Init(USBD_HandleTypeDef *pdev,
  93:Middlewares/ST/STM32_USB_Device_Library/Core/Src/usbd_core.c ****                              USBD_DescriptorsTypeDef *pdesc, uint8_t id)
  94:Middlewares/ST/STM32_USB_Device_Library/Core/Src/usbd_core.c **** {
  35              		.loc 1 94 1 view -0
  36              		.cfi_startproc
  37              		@ args = 0, pretend = 0, frame = 0
  38              		@ frame_needed = 0, uses_anonymous_args = 0
  39              		.loc 1 94 1 is_stmt 0 view .LVU1
  40 0000 10B5     		push	{r4, lr}
  41              	.LCFI0:
  42              		.cfi_def_cfa_offset 8
  43              		.cfi_offset 4, -8
  44              		.cfi_offset 14, -4
  95:Middlewares/ST/STM32_USB_Device_Library/Core/Src/usbd_core.c ****   USBD_StatusTypeDef ret;
  45              		.loc 1 95 3 is_stmt 1 view .LVU2
  96:Middlewares/ST/STM32_USB_Device_Library/Core/Src/usbd_core.c **** 
  97:Middlewares/ST/STM32_USB_Device_Library/Core/Src/usbd_core.c ****   /* Check whether the USB Host handle is valid */
  98:Middlewares/ST/STM32_USB_Device_Library/Core/Src/usbd_core.c ****   if (pdev == NULL)
  46              		.loc 1 98 3 view .LVU3
  47              		.loc 1 98 6 is_stmt 0 view .LVU4
  48 0002 0028     		cmp	r0, #0
  49 0004 14D0     		beq	.L5
  99:Middlewares/ST/STM32_USB_Device_Library/Core/Src/usbd_core.c ****   {
 100:Middlewares/ST/STM32_USB_Device_Library/Core/Src/usbd_core.c **** #if (USBD_DEBUG_LEVEL > 1U)
 101:Middlewares/ST/STM32_USB_Device_Library/Core/Src/usbd_core.c ****     USBD_ErrLog("Invalid Device handle");
 102:Middlewares/ST/STM32_USB_Device_Library/Core/Src/usbd_core.c **** #endif /* (USBD_DEBUG_LEVEL > 1U) */
 103:Middlewares/ST/STM32_USB_Device_Library/Core/Src/usbd_core.c ****     return USBD_FAIL;
 104:Middlewares/ST/STM32_USB_Device_Library/Core/Src/usbd_core.c ****   }
 105:Middlewares/ST/STM32_USB_Device_Library/Core/Src/usbd_core.c **** 
 106:Middlewares/ST/STM32_USB_Device_Library/Core/Src/usbd_core.c **** #ifdef USE_USBD_COMPOSITE
 107:Middlewares/ST/STM32_USB_Device_Library/Core/Src/usbd_core.c ****   /* Parse the table of classes in use */
 108:Middlewares/ST/STM32_USB_Device_Library/Core/Src/usbd_core.c ****   for (uint32_t i = 0; i < USBD_MAX_SUPPORTED_CLASS; i++)
 109:Middlewares/ST/STM32_USB_Device_Library/Core/Src/usbd_core.c ****   {
 110:Middlewares/ST/STM32_USB_Device_Library/Core/Src/usbd_core.c ****     /* Unlink previous class*/
 111:Middlewares/ST/STM32_USB_Device_Library/Core/Src/usbd_core.c ****     pdev->pClass[i] = NULL;
 112:Middlewares/ST/STM32_USB_Device_Library/Core/Src/usbd_core.c ****     pdev->pUserData[i] = NULL;
 113:Middlewares/ST/STM32_USB_Device_Library/Core/Src/usbd_core.c **** 
 114:Middlewares/ST/STM32_USB_Device_Library/Core/Src/usbd_core.c ****     /* Set class as inactive */
 115:Middlewares/ST/STM32_USB_Device_Library/Core/Src/usbd_core.c ****     pdev->tclasslist[i].Active = 0;
 116:Middlewares/ST/STM32_USB_Device_Library/Core/Src/usbd_core.c ****     pdev->NumClasses = 0;
 117:Middlewares/ST/STM32_USB_Device_Library/Core/Src/usbd_core.c ****     pdev->classId = 0;
 118:Middlewares/ST/STM32_USB_Device_Library/Core/Src/usbd_core.c ****   }
ARM GAS  /tmp/ccrU7oA5.s 			page 4


 119:Middlewares/ST/STM32_USB_Device_Library/Core/Src/usbd_core.c **** #else
 120:Middlewares/ST/STM32_USB_Device_Library/Core/Src/usbd_core.c ****   /* Unlink previous class*/
 121:Middlewares/ST/STM32_USB_Device_Library/Core/Src/usbd_core.c ****   pdev->pClass[0] = NULL;
  50              		.loc 1 121 3 is_stmt 1 view .LVU5
  51              		.loc 1 121 19 is_stmt 0 view .LVU6
  52 0006 0023     		movs	r3, #0
  53 0008 AE24     		movs	r4, #174
  54 000a A400     		lsls	r4, r4, #2
  55 000c 0351     		str	r3, [r0, r4]
 122:Middlewares/ST/STM32_USB_Device_Library/Core/Src/usbd_core.c ****   pdev->pUserData[0] = NULL;
  56              		.loc 1 122 3 is_stmt 1 view .LVU7
  57              		.loc 1 122 22 is_stmt 0 view .LVU8
  58 000e 0C34     		adds	r4, r4, #12
  59 0010 0351     		str	r3, [r0, r4]
 123:Middlewares/ST/STM32_USB_Device_Library/Core/Src/usbd_core.c **** #endif /* USE_USBD_COMPOSITE */
 124:Middlewares/ST/STM32_USB_Device_Library/Core/Src/usbd_core.c **** 
 125:Middlewares/ST/STM32_USB_Device_Library/Core/Src/usbd_core.c ****   pdev->pConfDesc = NULL;
  60              		.loc 1 125 3 is_stmt 1 view .LVU9
  61              		.loc 1 125 19 is_stmt 0 view .LVU10
  62 0012 0C34     		adds	r4, r4, #12
  63 0014 0351     		str	r3, [r0, r4]
 126:Middlewares/ST/STM32_USB_Device_Library/Core/Src/usbd_core.c **** 
 127:Middlewares/ST/STM32_USB_Device_Library/Core/Src/usbd_core.c ****   /* Assign USBD Descriptors */
 128:Middlewares/ST/STM32_USB_Device_Library/Core/Src/usbd_core.c ****   if (pdesc != NULL)
  64              		.loc 1 128 3 is_stmt 1 view .LVU11
  65              		.loc 1 128 6 is_stmt 0 view .LVU12
  66 0016 0029     		cmp	r1, #0
  67 0018 02D0     		beq	.L4
 129:Middlewares/ST/STM32_USB_Device_Library/Core/Src/usbd_core.c ****   {
 130:Middlewares/ST/STM32_USB_Device_Library/Core/Src/usbd_core.c ****     pdev->pDesc = pdesc;
  68              		.loc 1 130 5 is_stmt 1 view .LVU13
  69              		.loc 1 130 17 is_stmt 0 view .LVU14
  70 001a AD23     		movs	r3, #173
  71 001c 9B00     		lsls	r3, r3, #2
  72 001e C150     		str	r1, [r0, r3]
  73              	.L4:
 131:Middlewares/ST/STM32_USB_Device_Library/Core/Src/usbd_core.c ****   }
 132:Middlewares/ST/STM32_USB_Device_Library/Core/Src/usbd_core.c **** 
 133:Middlewares/ST/STM32_USB_Device_Library/Core/Src/usbd_core.c ****   /* Set Device initial State */
 134:Middlewares/ST/STM32_USB_Device_Library/Core/Src/usbd_core.c ****   pdev->dev_state = USBD_STATE_DEFAULT;
  74              		.loc 1 134 3 is_stmt 1 view .LVU15
  75              		.loc 1 134 19 is_stmt 0 view .LVU16
  76 0020 A723     		movs	r3, #167
  77 0022 9B00     		lsls	r3, r3, #2
  78 0024 0121     		movs	r1, #1
  79              	.LVL1:
  80              		.loc 1 134 19 view .LVU17
  81 0026 C154     		strb	r1, [r0, r3]
 135:Middlewares/ST/STM32_USB_Device_Library/Core/Src/usbd_core.c ****   pdev->id = id;
  82              		.loc 1 135 3 is_stmt 1 view .LVU18
  83              		.loc 1 135 12 is_stmt 0 view .LVU19
  84 0028 0270     		strb	r2, [r0]
 136:Middlewares/ST/STM32_USB_Device_Library/Core/Src/usbd_core.c **** 
 137:Middlewares/ST/STM32_USB_Device_Library/Core/Src/usbd_core.c ****   /* Initialize low level driver */
 138:Middlewares/ST/STM32_USB_Device_Library/Core/Src/usbd_core.c ****   ret = USBD_LL_Init(pdev);
  85              		.loc 1 138 3 is_stmt 1 view .LVU20
  86              		.loc 1 138 9 is_stmt 0 view .LVU21
ARM GAS  /tmp/ccrU7oA5.s 			page 5


  87 002a FFF7FEFF 		bl	USBD_LL_Init
  88              	.LVL2:
 139:Middlewares/ST/STM32_USB_Device_Library/Core/Src/usbd_core.c **** 
 140:Middlewares/ST/STM32_USB_Device_Library/Core/Src/usbd_core.c ****   return ret;
  89              		.loc 1 140 3 is_stmt 1 view .LVU22
  90              	.L3:
 141:Middlewares/ST/STM32_USB_Device_Library/Core/Src/usbd_core.c **** }
  91              		.loc 1 141 1 is_stmt 0 view .LVU23
  92              		@ sp needed
  93 002e 10BD     		pop	{r4, pc}
  94              	.LVL3:
  95              	.L5:
 101:Middlewares/ST/STM32_USB_Device_Library/Core/Src/usbd_core.c **** #endif /* (USBD_DEBUG_LEVEL > 1U) */
  96              		.loc 1 101 5 is_stmt 1 view .LVU24
  97 0030 0548     		ldr	r0, .L6
  98              	.LVL4:
 101:Middlewares/ST/STM32_USB_Device_Library/Core/Src/usbd_core.c **** #endif /* (USBD_DEBUG_LEVEL > 1U) */
  99              		.loc 1 101 5 is_stmt 0 view .LVU25
 100 0032 FFF7FEFF 		bl	printf
 101              	.LVL5:
 101:Middlewares/ST/STM32_USB_Device_Library/Core/Src/usbd_core.c **** #endif /* (USBD_DEBUG_LEVEL > 1U) */
 102              		.loc 1 101 5 is_stmt 1 discriminator 1 view .LVU26
 103 0036 0548     		ldr	r0, .L6+4
 104 0038 FFF7FEFF 		bl	printf
 105              	.LVL6:
 101:Middlewares/ST/STM32_USB_Device_Library/Core/Src/usbd_core.c **** #endif /* (USBD_DEBUG_LEVEL > 1U) */
 106              		.loc 1 101 5 discriminator 2 view .LVU27
 107 003c 0A20     		movs	r0, #10
 108 003e FFF7FEFF 		bl	putchar
 109              	.LVL7:
 101:Middlewares/ST/STM32_USB_Device_Library/Core/Src/usbd_core.c **** #endif /* (USBD_DEBUG_LEVEL > 1U) */
 110              		.loc 1 101 41 discriminator 3 view .LVU28
 103:Middlewares/ST/STM32_USB_Device_Library/Core/Src/usbd_core.c ****   }
 111              		.loc 1 103 5 view .LVU29
 103:Middlewares/ST/STM32_USB_Device_Library/Core/Src/usbd_core.c ****   }
 112              		.loc 1 103 12 is_stmt 0 view .LVU30
 113 0042 0320     		movs	r0, #3
 114 0044 F3E7     		b	.L3
 115              	.L7:
 116 0046 C046     		.align	2
 117              	.L6:
 118 0048 00000000 		.word	.LC0
 119 004c 08000000 		.word	.LC2
 120              		.cfi_endproc
 121              	.LFE500:
 123              		.section	.text.USBD_DeInit,"ax",%progbits
 124              		.align	1
 125              		.global	USBD_DeInit
 126              		.syntax unified
 127              		.code	16
 128              		.thumb_func
 130              	USBD_DeInit:
 131              	.LVL8:
 132              	.LFB501:
 142:Middlewares/ST/STM32_USB_Device_Library/Core/Src/usbd_core.c **** 
 143:Middlewares/ST/STM32_USB_Device_Library/Core/Src/usbd_core.c **** /**
 144:Middlewares/ST/STM32_USB_Device_Library/Core/Src/usbd_core.c ****   * @brief  USBD_DeInit
ARM GAS  /tmp/ccrU7oA5.s 			page 6


 145:Middlewares/ST/STM32_USB_Device_Library/Core/Src/usbd_core.c ****   *         Re-Initialize the device library
 146:Middlewares/ST/STM32_USB_Device_Library/Core/Src/usbd_core.c ****   * @param  pdev: device instance
 147:Middlewares/ST/STM32_USB_Device_Library/Core/Src/usbd_core.c ****   * @retval status: status
 148:Middlewares/ST/STM32_USB_Device_Library/Core/Src/usbd_core.c ****   */
 149:Middlewares/ST/STM32_USB_Device_Library/Core/Src/usbd_core.c **** USBD_StatusTypeDef USBD_DeInit(USBD_HandleTypeDef *pdev)
 150:Middlewares/ST/STM32_USB_Device_Library/Core/Src/usbd_core.c **** {
 133              		.loc 1 150 1 is_stmt 1 view -0
 134              		.cfi_startproc
 135              		@ args = 0, pretend = 0, frame = 0
 136              		@ frame_needed = 0, uses_anonymous_args = 0
 137              		.loc 1 150 1 is_stmt 0 view .LVU32
 138 0000 10B5     		push	{r4, lr}
 139              	.LCFI1:
 140              		.cfi_def_cfa_offset 8
 141              		.cfi_offset 4, -8
 142              		.cfi_offset 14, -4
 143 0002 0400     		movs	r4, r0
 151:Middlewares/ST/STM32_USB_Device_Library/Core/Src/usbd_core.c ****   USBD_StatusTypeDef ret;
 144              		.loc 1 151 3 is_stmt 1 view .LVU33
 152:Middlewares/ST/STM32_USB_Device_Library/Core/Src/usbd_core.c **** 
 153:Middlewares/ST/STM32_USB_Device_Library/Core/Src/usbd_core.c ****   /* Disconnect the USB Device */
 154:Middlewares/ST/STM32_USB_Device_Library/Core/Src/usbd_core.c ****   (void)USBD_LL_Stop(pdev);
 145              		.loc 1 154 3 view .LVU34
 146              		.loc 1 154 9 is_stmt 0 view .LVU35
 147 0004 FFF7FEFF 		bl	USBD_LL_Stop
 148              	.LVL9:
 155:Middlewares/ST/STM32_USB_Device_Library/Core/Src/usbd_core.c **** 
 156:Middlewares/ST/STM32_USB_Device_Library/Core/Src/usbd_core.c ****   /* Set Default State */
 157:Middlewares/ST/STM32_USB_Device_Library/Core/Src/usbd_core.c ****   pdev->dev_state = USBD_STATE_DEFAULT;
 149              		.loc 1 157 3 is_stmt 1 view .LVU36
 150              		.loc 1 157 19 is_stmt 0 view .LVU37
 151 0008 A723     		movs	r3, #167
 152 000a 9B00     		lsls	r3, r3, #2
 153 000c 0122     		movs	r2, #1
 154 000e E254     		strb	r2, [r4, r3]
 158:Middlewares/ST/STM32_USB_Device_Library/Core/Src/usbd_core.c **** 
 159:Middlewares/ST/STM32_USB_Device_Library/Core/Src/usbd_core.c **** #ifdef USE_USBD_COMPOSITE
 160:Middlewares/ST/STM32_USB_Device_Library/Core/Src/usbd_core.c ****   /* Parse the table of classes in use */
 161:Middlewares/ST/STM32_USB_Device_Library/Core/Src/usbd_core.c ****   for (uint32_t i = 0; i < USBD_MAX_SUPPORTED_CLASS; i++)
 162:Middlewares/ST/STM32_USB_Device_Library/Core/Src/usbd_core.c ****   {
 163:Middlewares/ST/STM32_USB_Device_Library/Core/Src/usbd_core.c ****     /* Check if current class is in use */
 164:Middlewares/ST/STM32_USB_Device_Library/Core/Src/usbd_core.c ****     if ((pdev->tclasslist[i].Active) == 1U)
 165:Middlewares/ST/STM32_USB_Device_Library/Core/Src/usbd_core.c ****     {
 166:Middlewares/ST/STM32_USB_Device_Library/Core/Src/usbd_core.c ****       if (pdev->pClass[i] != NULL)
 167:Middlewares/ST/STM32_USB_Device_Library/Core/Src/usbd_core.c ****       {
 168:Middlewares/ST/STM32_USB_Device_Library/Core/Src/usbd_core.c ****         pdev->classId = i;
 169:Middlewares/ST/STM32_USB_Device_Library/Core/Src/usbd_core.c ****         /* Free Class Resources */
 170:Middlewares/ST/STM32_USB_Device_Library/Core/Src/usbd_core.c ****         pdev->pClass[i]->DeInit(pdev, (uint8_t)pdev->dev_config);
 171:Middlewares/ST/STM32_USB_Device_Library/Core/Src/usbd_core.c ****       }
 172:Middlewares/ST/STM32_USB_Device_Library/Core/Src/usbd_core.c ****     }
 173:Middlewares/ST/STM32_USB_Device_Library/Core/Src/usbd_core.c ****   }
 174:Middlewares/ST/STM32_USB_Device_Library/Core/Src/usbd_core.c **** #else
 175:Middlewares/ST/STM32_USB_Device_Library/Core/Src/usbd_core.c ****   /* Free Class Resources */
 176:Middlewares/ST/STM32_USB_Device_Library/Core/Src/usbd_core.c ****   if (pdev->pClass[0] != NULL)
 155              		.loc 1 176 3 is_stmt 1 view .LVU38
 156              		.loc 1 176 19 is_stmt 0 view .LVU39
 157 0010 1C33     		adds	r3, r3, #28
ARM GAS  /tmp/ccrU7oA5.s 			page 7


 158 0012 E358     		ldr	r3, [r4, r3]
 159              		.loc 1 176 6 view .LVU40
 160 0014 002B     		cmp	r3, #0
 161 0016 03D0     		beq	.L9
 177:Middlewares/ST/STM32_USB_Device_Library/Core/Src/usbd_core.c ****   {
 178:Middlewares/ST/STM32_USB_Device_Library/Core/Src/usbd_core.c ****     pdev->pClass[0]->DeInit(pdev, (uint8_t)pdev->dev_config);
 162              		.loc 1 178 5 is_stmt 1 view .LVU41
 163              		.loc 1 178 20 is_stmt 0 view .LVU42
 164 0018 5B68     		ldr	r3, [r3, #4]
 165              		.loc 1 178 5 view .LVU43
 166 001a 2179     		ldrb	r1, [r4, #4]
 167 001c 2000     		movs	r0, r4
 168 001e 9847     		blx	r3
 169              	.LVL10:
 170              	.L9:
 179:Middlewares/ST/STM32_USB_Device_Library/Core/Src/usbd_core.c ****   }
 180:Middlewares/ST/STM32_USB_Device_Library/Core/Src/usbd_core.c **** 
 181:Middlewares/ST/STM32_USB_Device_Library/Core/Src/usbd_core.c ****   pdev->pUserData[0] = NULL;
 171              		.loc 1 181 3 is_stmt 1 view .LVU44
 172              		.loc 1 181 22 is_stmt 0 view .LVU45
 173 0020 0023     		movs	r3, #0
 174 0022 B122     		movs	r2, #177
 175 0024 9200     		lsls	r2, r2, #2
 176 0026 A350     		str	r3, [r4, r2]
 182:Middlewares/ST/STM32_USB_Device_Library/Core/Src/usbd_core.c **** 
 183:Middlewares/ST/STM32_USB_Device_Library/Core/Src/usbd_core.c **** #endif /* USE_USBD_COMPOSITE */
 184:Middlewares/ST/STM32_USB_Device_Library/Core/Src/usbd_core.c **** 
 185:Middlewares/ST/STM32_USB_Device_Library/Core/Src/usbd_core.c ****   /* Free Device descriptors resources */
 186:Middlewares/ST/STM32_USB_Device_Library/Core/Src/usbd_core.c ****   pdev->pDesc = NULL;
 177              		.loc 1 186 3 is_stmt 1 view .LVU46
 178              		.loc 1 186 15 is_stmt 0 view .LVU47
 179 0028 103A     		subs	r2, r2, #16
 180 002a A350     		str	r3, [r4, r2]
 187:Middlewares/ST/STM32_USB_Device_Library/Core/Src/usbd_core.c ****   pdev->pConfDesc = NULL;
 181              		.loc 1 187 3 is_stmt 1 view .LVU48
 182              		.loc 1 187 19 is_stmt 0 view .LVU49
 183 002c 1C32     		adds	r2, r2, #28
 184 002e A350     		str	r3, [r4, r2]
 188:Middlewares/ST/STM32_USB_Device_Library/Core/Src/usbd_core.c **** 
 189:Middlewares/ST/STM32_USB_Device_Library/Core/Src/usbd_core.c ****   /* DeInitialize low level driver */
 190:Middlewares/ST/STM32_USB_Device_Library/Core/Src/usbd_core.c ****   ret = USBD_LL_DeInit(pdev);
 185              		.loc 1 190 3 is_stmt 1 view .LVU50
 186              		.loc 1 190 9 is_stmt 0 view .LVU51
 187 0030 2000     		movs	r0, r4
 188 0032 FFF7FEFF 		bl	USBD_LL_DeInit
 189              	.LVL11:
 191:Middlewares/ST/STM32_USB_Device_Library/Core/Src/usbd_core.c **** 
 192:Middlewares/ST/STM32_USB_Device_Library/Core/Src/usbd_core.c ****   return ret;
 190              		.loc 1 192 3 is_stmt 1 view .LVU52
 193:Middlewares/ST/STM32_USB_Device_Library/Core/Src/usbd_core.c **** }
 191              		.loc 1 193 1 is_stmt 0 view .LVU53
 192              		@ sp needed
 193              	.LVL12:
 194              		.loc 1 193 1 view .LVU54
 195 0036 10BD     		pop	{r4, pc}
 196              		.cfi_endproc
 197              	.LFE501:
ARM GAS  /tmp/ccrU7oA5.s 			page 8


 199              		.section	.rodata.USBD_RegisterClass.str1.4,"aMS",%progbits,1
 200              		.align	2
 201              	.LC5:
 202 0000 496E7661 		.ascii	"Invalid Class handle\000"
 202      6C696420 
 202      436C6173 
 202      73206861 
 202      6E646C65 
 203              		.section	.text.USBD_RegisterClass,"ax",%progbits
 204              		.align	1
 205              		.global	USBD_RegisterClass
 206              		.syntax unified
 207              		.code	16
 208              		.thumb_func
 210              	USBD_RegisterClass:
 211              	.LVL13:
 212              	.LFB502:
 194:Middlewares/ST/STM32_USB_Device_Library/Core/Src/usbd_core.c **** 
 195:Middlewares/ST/STM32_USB_Device_Library/Core/Src/usbd_core.c **** /**
 196:Middlewares/ST/STM32_USB_Device_Library/Core/Src/usbd_core.c ****   * @brief  USBD_RegisterClass
 197:Middlewares/ST/STM32_USB_Device_Library/Core/Src/usbd_core.c ****   *         Link class driver to Device Core.
 198:Middlewares/ST/STM32_USB_Device_Library/Core/Src/usbd_core.c ****   * @param  pDevice : Device Handle
 199:Middlewares/ST/STM32_USB_Device_Library/Core/Src/usbd_core.c ****   * @param  pclass: Class handle
 200:Middlewares/ST/STM32_USB_Device_Library/Core/Src/usbd_core.c ****   * @retval USBD Status
 201:Middlewares/ST/STM32_USB_Device_Library/Core/Src/usbd_core.c ****   */
 202:Middlewares/ST/STM32_USB_Device_Library/Core/Src/usbd_core.c **** USBD_StatusTypeDef USBD_RegisterClass(USBD_HandleTypeDef *pdev, USBD_ClassTypeDef *pclass)
 203:Middlewares/ST/STM32_USB_Device_Library/Core/Src/usbd_core.c **** {
 213              		.loc 1 203 1 is_stmt 1 view -0
 214              		.cfi_startproc
 215              		@ args = 0, pretend = 0, frame = 8
 216              		@ frame_needed = 0, uses_anonymous_args = 0
 217              		.loc 1 203 1 is_stmt 0 view .LVU56
 218 0000 10B5     		push	{r4, lr}
 219              	.LCFI2:
 220              		.cfi_def_cfa_offset 8
 221              		.cfi_offset 4, -8
 222              		.cfi_offset 14, -4
 223 0002 82B0     		sub	sp, sp, #8
 224              	.LCFI3:
 225              		.cfi_def_cfa_offset 16
 226 0004 0400     		movs	r4, r0
 204:Middlewares/ST/STM32_USB_Device_Library/Core/Src/usbd_core.c ****   uint16_t len = 0U;
 227              		.loc 1 204 3 is_stmt 1 view .LVU57
 228              		.loc 1 204 12 is_stmt 0 view .LVU58
 229 0006 6B46     		mov	r3, sp
 230 0008 0022     		movs	r2, #0
 231 000a DA80     		strh	r2, [r3, #6]
 205:Middlewares/ST/STM32_USB_Device_Library/Core/Src/usbd_core.c **** 
 206:Middlewares/ST/STM32_USB_Device_Library/Core/Src/usbd_core.c ****   if (pclass == NULL)
 232              		.loc 1 206 3 is_stmt 1 view .LVU59
 233              		.loc 1 206 6 is_stmt 0 view .LVU60
 234 000c 0029     		cmp	r1, #0
 235 000e 19D0     		beq	.L14
 207:Middlewares/ST/STM32_USB_Device_Library/Core/Src/usbd_core.c ****   {
 208:Middlewares/ST/STM32_USB_Device_Library/Core/Src/usbd_core.c **** #if (USBD_DEBUG_LEVEL > 1U)
 209:Middlewares/ST/STM32_USB_Device_Library/Core/Src/usbd_core.c ****     USBD_ErrLog("Invalid Class handle");
 210:Middlewares/ST/STM32_USB_Device_Library/Core/Src/usbd_core.c **** #endif /* (USBD_DEBUG_LEVEL > 1U) */
ARM GAS  /tmp/ccrU7oA5.s 			page 9


 211:Middlewares/ST/STM32_USB_Device_Library/Core/Src/usbd_core.c ****     return USBD_FAIL;
 212:Middlewares/ST/STM32_USB_Device_Library/Core/Src/usbd_core.c ****   }
 213:Middlewares/ST/STM32_USB_Device_Library/Core/Src/usbd_core.c **** 
 214:Middlewares/ST/STM32_USB_Device_Library/Core/Src/usbd_core.c ****   /* link the class to the USB Device handle */
 215:Middlewares/ST/STM32_USB_Device_Library/Core/Src/usbd_core.c ****   pdev->pClass[0] = pclass;
 236              		.loc 1 215 3 is_stmt 1 view .LVU61
 237              		.loc 1 215 19 is_stmt 0 view .LVU62
 238 0010 AE23     		movs	r3, #174
 239 0012 9B00     		lsls	r3, r3, #2
 240 0014 C150     		str	r1, [r0, r3]
 216:Middlewares/ST/STM32_USB_Device_Library/Core/Src/usbd_core.c **** 
 217:Middlewares/ST/STM32_USB_Device_Library/Core/Src/usbd_core.c ****   /* Get Device Configuration Descriptor */
 218:Middlewares/ST/STM32_USB_Device_Library/Core/Src/usbd_core.c **** #ifdef USE_USB_HS
 219:Middlewares/ST/STM32_USB_Device_Library/Core/Src/usbd_core.c ****   if (pdev->pClass[pdev->classId]->GetHSConfigDescriptor != NULL)
 220:Middlewares/ST/STM32_USB_Device_Library/Core/Src/usbd_core.c ****   {
 221:Middlewares/ST/STM32_USB_Device_Library/Core/Src/usbd_core.c ****     pdev->pConfDesc = (void *)pdev->pClass[pdev->classId]->GetHSConfigDescriptor(&len);
 222:Middlewares/ST/STM32_USB_Device_Library/Core/Src/usbd_core.c ****   }
 223:Middlewares/ST/STM32_USB_Device_Library/Core/Src/usbd_core.c **** #else /* Default USE_USB_FS */
 224:Middlewares/ST/STM32_USB_Device_Library/Core/Src/usbd_core.c ****   if (pdev->pClass[pdev->classId]->GetFSConfigDescriptor != NULL)
 241              		.loc 1 224 3 is_stmt 1 view .LVU63
 242              		.loc 1 224 24 is_stmt 0 view .LVU64
 243 0016 1C33     		adds	r3, r3, #28
 244 0018 C358     		ldr	r3, [r0, r3]
 245              		.loc 1 224 34 view .LVU65
 246 001a CA6A     		ldr	r2, [r1, #44]
 247              		.loc 1 224 6 view .LVU66
 248 001c 002A     		cmp	r2, #0
 249 001e 09D0     		beq	.L13
 225:Middlewares/ST/STM32_USB_Device_Library/Core/Src/usbd_core.c ****   {
 226:Middlewares/ST/STM32_USB_Device_Library/Core/Src/usbd_core.c ****     pdev->pConfDesc = (void *)pdev->pClass[pdev->classId]->GetFSConfigDescriptor(&len);
 250              		.loc 1 226 5 is_stmt 1 view .LVU67
 251              		.loc 1 226 43 is_stmt 0 view .LVU68
 252 0020 AE33     		adds	r3, r3, #174
 253 0022 9B00     		lsls	r3, r3, #2
 254 0024 1B58     		ldr	r3, [r3, r0]
 255              		.loc 1 226 58 view .LVU69
 256 0026 DB6A     		ldr	r3, [r3, #44]
 257              		.loc 1 226 31 view .LVU70
 258 0028 6A46     		mov	r2, sp
 259 002a 901D     		adds	r0, r2, #6
 260              	.LVL14:
 261              		.loc 1 226 31 view .LVU71
 262 002c 9847     		blx	r3
 263              	.LVL15:
 264              		.loc 1 226 21 discriminator 1 view .LVU72
 265 002e B423     		movs	r3, #180
 266 0030 9B00     		lsls	r3, r3, #2
 267 0032 E050     		str	r0, [r4, r3]
 268              	.L13:
 227:Middlewares/ST/STM32_USB_Device_Library/Core/Src/usbd_core.c ****   }
 228:Middlewares/ST/STM32_USB_Device_Library/Core/Src/usbd_core.c **** #endif /* USE_USB_FS */
 229:Middlewares/ST/STM32_USB_Device_Library/Core/Src/usbd_core.c **** 
 230:Middlewares/ST/STM32_USB_Device_Library/Core/Src/usbd_core.c ****   /* Increment the NumClasses */
 231:Middlewares/ST/STM32_USB_Device_Library/Core/Src/usbd_core.c ****   pdev->NumClasses ++;
 269              		.loc 1 231 3 is_stmt 1 view .LVU73
 270              		.loc 1 231 7 is_stmt 0 view .LVU74
 271 0034 B622     		movs	r2, #182
ARM GAS  /tmp/ccrU7oA5.s 			page 10


 272 0036 9200     		lsls	r2, r2, #2
 273 0038 A358     		ldr	r3, [r4, r2]
 274              		.loc 1 231 20 view .LVU75
 275 003a 0133     		adds	r3, r3, #1
 276 003c A350     		str	r3, [r4, r2]
 232:Middlewares/ST/STM32_USB_Device_Library/Core/Src/usbd_core.c **** 
 233:Middlewares/ST/STM32_USB_Device_Library/Core/Src/usbd_core.c ****   return USBD_OK;
 277              		.loc 1 233 3 is_stmt 1 view .LVU76
 278              		.loc 1 233 10 is_stmt 0 view .LVU77
 279 003e 0020     		movs	r0, #0
 280              	.L12:
 234:Middlewares/ST/STM32_USB_Device_Library/Core/Src/usbd_core.c **** }
 281              		.loc 1 234 1 view .LVU78
 282 0040 02B0     		add	sp, sp, #8
 283              		@ sp needed
 284              	.LVL16:
 285              		.loc 1 234 1 view .LVU79
 286 0042 10BD     		pop	{r4, pc}
 287              	.LVL17:
 288              	.L14:
 209:Middlewares/ST/STM32_USB_Device_Library/Core/Src/usbd_core.c **** #endif /* (USBD_DEBUG_LEVEL > 1U) */
 289              		.loc 1 209 5 is_stmt 1 view .LVU80
 290 0044 0548     		ldr	r0, .L15
 291              	.LVL18:
 209:Middlewares/ST/STM32_USB_Device_Library/Core/Src/usbd_core.c **** #endif /* (USBD_DEBUG_LEVEL > 1U) */
 292              		.loc 1 209 5 is_stmt 0 view .LVU81
 293 0046 FFF7FEFF 		bl	printf
 294              	.LVL19:
 209:Middlewares/ST/STM32_USB_Device_Library/Core/Src/usbd_core.c **** #endif /* (USBD_DEBUG_LEVEL > 1U) */
 295              		.loc 1 209 5 is_stmt 1 discriminator 1 view .LVU82
 296 004a 0548     		ldr	r0, .L15+4
 297 004c FFF7FEFF 		bl	printf
 298              	.LVL20:
 209:Middlewares/ST/STM32_USB_Device_Library/Core/Src/usbd_core.c **** #endif /* (USBD_DEBUG_LEVEL > 1U) */
 299              		.loc 1 209 5 discriminator 2 view .LVU83
 300 0050 0A20     		movs	r0, #10
 301 0052 FFF7FEFF 		bl	putchar
 302              	.LVL21:
 209:Middlewares/ST/STM32_USB_Device_Library/Core/Src/usbd_core.c **** #endif /* (USBD_DEBUG_LEVEL > 1U) */
 303              		.loc 1 209 40 discriminator 3 view .LVU84
 211:Middlewares/ST/STM32_USB_Device_Library/Core/Src/usbd_core.c ****   }
 304              		.loc 1 211 5 view .LVU85
 211:Middlewares/ST/STM32_USB_Device_Library/Core/Src/usbd_core.c ****   }
 305              		.loc 1 211 12 is_stmt 0 view .LVU86
 306 0056 0320     		movs	r0, #3
 307 0058 F2E7     		b	.L12
 308              	.L16:
 309 005a C046     		.align	2
 310              	.L15:
 311 005c 00000000 		.word	.LC0
 312 0060 00000000 		.word	.LC5
 313              		.cfi_endproc
 314              	.LFE502:
 316              		.section	.text.USBD_Start,"ax",%progbits
 317              		.align	1
 318              		.global	USBD_Start
 319              		.syntax unified
ARM GAS  /tmp/ccrU7oA5.s 			page 11


 320              		.code	16
 321              		.thumb_func
 323              	USBD_Start:
 324              	.LVL22:
 325              	.LFB503:
 235:Middlewares/ST/STM32_USB_Device_Library/Core/Src/usbd_core.c **** 
 236:Middlewares/ST/STM32_USB_Device_Library/Core/Src/usbd_core.c **** #ifdef USE_USBD_COMPOSITE
 237:Middlewares/ST/STM32_USB_Device_Library/Core/Src/usbd_core.c **** /**
 238:Middlewares/ST/STM32_USB_Device_Library/Core/Src/usbd_core.c ****   * @brief  USBD_RegisterClassComposite
 239:Middlewares/ST/STM32_USB_Device_Library/Core/Src/usbd_core.c ****   *         Link class driver to Device Core.
 240:Middlewares/ST/STM32_USB_Device_Library/Core/Src/usbd_core.c ****   * @param  pdev : Device Handle
 241:Middlewares/ST/STM32_USB_Device_Library/Core/Src/usbd_core.c ****   * @param  pclass: Class handle
 242:Middlewares/ST/STM32_USB_Device_Library/Core/Src/usbd_core.c ****   * @param  classtype: Class type
 243:Middlewares/ST/STM32_USB_Device_Library/Core/Src/usbd_core.c ****   * @param  EpAddr: Endpoint Address handle
 244:Middlewares/ST/STM32_USB_Device_Library/Core/Src/usbd_core.c ****   * @retval USBD Status
 245:Middlewares/ST/STM32_USB_Device_Library/Core/Src/usbd_core.c ****   */
 246:Middlewares/ST/STM32_USB_Device_Library/Core/Src/usbd_core.c **** USBD_StatusTypeDef  USBD_RegisterClassComposite(USBD_HandleTypeDef *pdev, USBD_ClassTypeDef *pclass
 247:Middlewares/ST/STM32_USB_Device_Library/Core/Src/usbd_core.c ****                                                 USBD_CompositeClassTypeDef classtype, uint8_t *EpAd
 248:Middlewares/ST/STM32_USB_Device_Library/Core/Src/usbd_core.c **** {
 249:Middlewares/ST/STM32_USB_Device_Library/Core/Src/usbd_core.c ****   USBD_StatusTypeDef   ret = USBD_OK;
 250:Middlewares/ST/STM32_USB_Device_Library/Core/Src/usbd_core.c ****   uint16_t len = 0U;
 251:Middlewares/ST/STM32_USB_Device_Library/Core/Src/usbd_core.c **** 
 252:Middlewares/ST/STM32_USB_Device_Library/Core/Src/usbd_core.c ****   if ((pdev->classId < USBD_MAX_SUPPORTED_CLASS) && (pdev->NumClasses < USBD_MAX_SUPPORTED_CLASS))
 253:Middlewares/ST/STM32_USB_Device_Library/Core/Src/usbd_core.c ****   {
 254:Middlewares/ST/STM32_USB_Device_Library/Core/Src/usbd_core.c ****     if ((uint32_t)pclass != 0U)
 255:Middlewares/ST/STM32_USB_Device_Library/Core/Src/usbd_core.c ****     {
 256:Middlewares/ST/STM32_USB_Device_Library/Core/Src/usbd_core.c ****       /* Link the class to the USB Device handle */
 257:Middlewares/ST/STM32_USB_Device_Library/Core/Src/usbd_core.c ****       pdev->pClass[pdev->classId] = pclass;
 258:Middlewares/ST/STM32_USB_Device_Library/Core/Src/usbd_core.c ****       ret = USBD_OK;
 259:Middlewares/ST/STM32_USB_Device_Library/Core/Src/usbd_core.c **** 
 260:Middlewares/ST/STM32_USB_Device_Library/Core/Src/usbd_core.c ****       pdev->tclasslist[pdev->classId].EpAdd = EpAddr;
 261:Middlewares/ST/STM32_USB_Device_Library/Core/Src/usbd_core.c **** 
 262:Middlewares/ST/STM32_USB_Device_Library/Core/Src/usbd_core.c ****       /* Call the composite class builder */
 263:Middlewares/ST/STM32_USB_Device_Library/Core/Src/usbd_core.c ****       (void)USBD_CMPSIT_AddClass(pdev, pclass, classtype, 0);
 264:Middlewares/ST/STM32_USB_Device_Library/Core/Src/usbd_core.c **** 
 265:Middlewares/ST/STM32_USB_Device_Library/Core/Src/usbd_core.c ****       /* Increment the ClassId for the next occurrence */
 266:Middlewares/ST/STM32_USB_Device_Library/Core/Src/usbd_core.c ****       pdev->classId ++;
 267:Middlewares/ST/STM32_USB_Device_Library/Core/Src/usbd_core.c ****       pdev->NumClasses ++;
 268:Middlewares/ST/STM32_USB_Device_Library/Core/Src/usbd_core.c ****     }
 269:Middlewares/ST/STM32_USB_Device_Library/Core/Src/usbd_core.c ****     else
 270:Middlewares/ST/STM32_USB_Device_Library/Core/Src/usbd_core.c ****     {
 271:Middlewares/ST/STM32_USB_Device_Library/Core/Src/usbd_core.c **** #if (USBD_DEBUG_LEVEL > 1U)
 272:Middlewares/ST/STM32_USB_Device_Library/Core/Src/usbd_core.c ****       USBD_ErrLog("Invalid Class handle");
 273:Middlewares/ST/STM32_USB_Device_Library/Core/Src/usbd_core.c **** #endif /* (USBD_DEBUG_LEVEL > 1U) */
 274:Middlewares/ST/STM32_USB_Device_Library/Core/Src/usbd_core.c ****       ret = USBD_FAIL;
 275:Middlewares/ST/STM32_USB_Device_Library/Core/Src/usbd_core.c ****     }
 276:Middlewares/ST/STM32_USB_Device_Library/Core/Src/usbd_core.c ****   }
 277:Middlewares/ST/STM32_USB_Device_Library/Core/Src/usbd_core.c **** 
 278:Middlewares/ST/STM32_USB_Device_Library/Core/Src/usbd_core.c ****   if (ret == USBD_OK)
 279:Middlewares/ST/STM32_USB_Device_Library/Core/Src/usbd_core.c ****   {
 280:Middlewares/ST/STM32_USB_Device_Library/Core/Src/usbd_core.c ****     /* Get Device Configuration Descriptor */
 281:Middlewares/ST/STM32_USB_Device_Library/Core/Src/usbd_core.c **** #ifdef USE_USB_HS
 282:Middlewares/ST/STM32_USB_Device_Library/Core/Src/usbd_core.c ****     pdev->pConfDesc = USBD_CMPSIT.GetHSConfigDescriptor(&len);
 283:Middlewares/ST/STM32_USB_Device_Library/Core/Src/usbd_core.c **** #else /* Default USE_USB_FS */
 284:Middlewares/ST/STM32_USB_Device_Library/Core/Src/usbd_core.c ****     pdev->pConfDesc = USBD_CMPSIT.GetFSConfigDescriptor(&len);
 285:Middlewares/ST/STM32_USB_Device_Library/Core/Src/usbd_core.c **** #endif /* USE_USB_FS */
 286:Middlewares/ST/STM32_USB_Device_Library/Core/Src/usbd_core.c ****   }
ARM GAS  /tmp/ccrU7oA5.s 			page 12


 287:Middlewares/ST/STM32_USB_Device_Library/Core/Src/usbd_core.c **** 
 288:Middlewares/ST/STM32_USB_Device_Library/Core/Src/usbd_core.c ****   return ret;
 289:Middlewares/ST/STM32_USB_Device_Library/Core/Src/usbd_core.c **** }
 290:Middlewares/ST/STM32_USB_Device_Library/Core/Src/usbd_core.c **** 
 291:Middlewares/ST/STM32_USB_Device_Library/Core/Src/usbd_core.c **** /**
 292:Middlewares/ST/STM32_USB_Device_Library/Core/Src/usbd_core.c ****   * @brief  USBD_UnRegisterClassComposite
 293:Middlewares/ST/STM32_USB_Device_Library/Core/Src/usbd_core.c ****   *         UnLink all composite class drivers from Device Core.
 294:Middlewares/ST/STM32_USB_Device_Library/Core/Src/usbd_core.c ****   * @param  pDevice : Device Handle
 295:Middlewares/ST/STM32_USB_Device_Library/Core/Src/usbd_core.c ****   * @retval USBD Status
 296:Middlewares/ST/STM32_USB_Device_Library/Core/Src/usbd_core.c ****   */
 297:Middlewares/ST/STM32_USB_Device_Library/Core/Src/usbd_core.c **** USBD_StatusTypeDef  USBD_UnRegisterClassComposite(USBD_HandleTypeDef *pdev)
 298:Middlewares/ST/STM32_USB_Device_Library/Core/Src/usbd_core.c **** {
 299:Middlewares/ST/STM32_USB_Device_Library/Core/Src/usbd_core.c ****   USBD_StatusTypeDef   ret = USBD_FAIL;
 300:Middlewares/ST/STM32_USB_Device_Library/Core/Src/usbd_core.c ****   uint8_t idx1;
 301:Middlewares/ST/STM32_USB_Device_Library/Core/Src/usbd_core.c ****   uint8_t idx2;
 302:Middlewares/ST/STM32_USB_Device_Library/Core/Src/usbd_core.c **** 
 303:Middlewares/ST/STM32_USB_Device_Library/Core/Src/usbd_core.c ****   /* Unroll all activated classes */
 304:Middlewares/ST/STM32_USB_Device_Library/Core/Src/usbd_core.c ****   for (idx1 = 0; idx1 < pdev->NumClasses; idx1++)
 305:Middlewares/ST/STM32_USB_Device_Library/Core/Src/usbd_core.c ****   {
 306:Middlewares/ST/STM32_USB_Device_Library/Core/Src/usbd_core.c ****     /* Check if the class correspond to the requested type and if it is active */
 307:Middlewares/ST/STM32_USB_Device_Library/Core/Src/usbd_core.c ****     if (pdev->tclasslist[idx1].Active == 1U)
 308:Middlewares/ST/STM32_USB_Device_Library/Core/Src/usbd_core.c ****     {
 309:Middlewares/ST/STM32_USB_Device_Library/Core/Src/usbd_core.c ****       /* Set the new class ID */
 310:Middlewares/ST/STM32_USB_Device_Library/Core/Src/usbd_core.c ****       pdev->classId = idx1;
 311:Middlewares/ST/STM32_USB_Device_Library/Core/Src/usbd_core.c **** 
 312:Middlewares/ST/STM32_USB_Device_Library/Core/Src/usbd_core.c ****       /* Free resources used by the selected class */
 313:Middlewares/ST/STM32_USB_Device_Library/Core/Src/usbd_core.c ****       if (pdev->pClass[pdev->classId] != NULL)
 314:Middlewares/ST/STM32_USB_Device_Library/Core/Src/usbd_core.c ****       {
 315:Middlewares/ST/STM32_USB_Device_Library/Core/Src/usbd_core.c ****         /* Free Class Resources */
 316:Middlewares/ST/STM32_USB_Device_Library/Core/Src/usbd_core.c ****         if (pdev->pClass[pdev->classId]->DeInit(pdev, (uint8_t)pdev->dev_config) != 0U)
 317:Middlewares/ST/STM32_USB_Device_Library/Core/Src/usbd_core.c ****         {
 318:Middlewares/ST/STM32_USB_Device_Library/Core/Src/usbd_core.c **** #if (USBD_DEBUG_LEVEL > 1U)
 319:Middlewares/ST/STM32_USB_Device_Library/Core/Src/usbd_core.c ****           USBD_ErrLog("Class DeInit didn't succeed!, can't unregister selected class");
 320:Middlewares/ST/STM32_USB_Device_Library/Core/Src/usbd_core.c **** #endif /* (USBD_DEBUG_LEVEL > 1U) */
 321:Middlewares/ST/STM32_USB_Device_Library/Core/Src/usbd_core.c **** 
 322:Middlewares/ST/STM32_USB_Device_Library/Core/Src/usbd_core.c ****           ret = USBD_FAIL;
 323:Middlewares/ST/STM32_USB_Device_Library/Core/Src/usbd_core.c ****         }
 324:Middlewares/ST/STM32_USB_Device_Library/Core/Src/usbd_core.c ****       }
 325:Middlewares/ST/STM32_USB_Device_Library/Core/Src/usbd_core.c **** 
 326:Middlewares/ST/STM32_USB_Device_Library/Core/Src/usbd_core.c ****       /* Free the class pointer */
 327:Middlewares/ST/STM32_USB_Device_Library/Core/Src/usbd_core.c ****       pdev->pClass[pdev->classId] = NULL;
 328:Middlewares/ST/STM32_USB_Device_Library/Core/Src/usbd_core.c **** 
 329:Middlewares/ST/STM32_USB_Device_Library/Core/Src/usbd_core.c ****       /* Free the class location in classes table and reset its parameters to zero */
 330:Middlewares/ST/STM32_USB_Device_Library/Core/Src/usbd_core.c ****       pdev->tclasslist[pdev->classId].ClassType = CLASS_TYPE_NONE;
 331:Middlewares/ST/STM32_USB_Device_Library/Core/Src/usbd_core.c ****       pdev->tclasslist[pdev->classId].ClassId = 0U;
 332:Middlewares/ST/STM32_USB_Device_Library/Core/Src/usbd_core.c ****       pdev->tclasslist[pdev->classId].Active = 0U;
 333:Middlewares/ST/STM32_USB_Device_Library/Core/Src/usbd_core.c ****       pdev->tclasslist[pdev->classId].NumEps = 0U;
 334:Middlewares/ST/STM32_USB_Device_Library/Core/Src/usbd_core.c ****       pdev->tclasslist[pdev->classId].NumIf = 0U;
 335:Middlewares/ST/STM32_USB_Device_Library/Core/Src/usbd_core.c ****       pdev->tclasslist[pdev->classId].CurrPcktSze = 0U;
 336:Middlewares/ST/STM32_USB_Device_Library/Core/Src/usbd_core.c **** 
 337:Middlewares/ST/STM32_USB_Device_Library/Core/Src/usbd_core.c ****       for (idx2 = 0U; idx2 < USBD_MAX_CLASS_ENDPOINTS; idx2++)
 338:Middlewares/ST/STM32_USB_Device_Library/Core/Src/usbd_core.c ****       {
 339:Middlewares/ST/STM32_USB_Device_Library/Core/Src/usbd_core.c ****         pdev->tclasslist[pdev->classId].Eps[idx2].add = 0U;
 340:Middlewares/ST/STM32_USB_Device_Library/Core/Src/usbd_core.c ****         pdev->tclasslist[pdev->classId].Eps[idx2].type = 0U;
 341:Middlewares/ST/STM32_USB_Device_Library/Core/Src/usbd_core.c ****         pdev->tclasslist[pdev->classId].Eps[idx2].size = 0U;
 342:Middlewares/ST/STM32_USB_Device_Library/Core/Src/usbd_core.c ****         pdev->tclasslist[pdev->classId].Eps[idx2].is_used = 0U;
 343:Middlewares/ST/STM32_USB_Device_Library/Core/Src/usbd_core.c ****       }
ARM GAS  /tmp/ccrU7oA5.s 			page 13


 344:Middlewares/ST/STM32_USB_Device_Library/Core/Src/usbd_core.c **** 
 345:Middlewares/ST/STM32_USB_Device_Library/Core/Src/usbd_core.c ****       for (idx2 = 0U; idx2 < USBD_MAX_CLASS_INTERFACES; idx2++)
 346:Middlewares/ST/STM32_USB_Device_Library/Core/Src/usbd_core.c ****       {
 347:Middlewares/ST/STM32_USB_Device_Library/Core/Src/usbd_core.c ****         pdev->tclasslist[pdev->classId].Ifs[idx2] = 0U;
 348:Middlewares/ST/STM32_USB_Device_Library/Core/Src/usbd_core.c ****       }
 349:Middlewares/ST/STM32_USB_Device_Library/Core/Src/usbd_core.c ****     }
 350:Middlewares/ST/STM32_USB_Device_Library/Core/Src/usbd_core.c ****   }
 351:Middlewares/ST/STM32_USB_Device_Library/Core/Src/usbd_core.c **** 
 352:Middlewares/ST/STM32_USB_Device_Library/Core/Src/usbd_core.c ****   /* Reset the configuration descriptor */
 353:Middlewares/ST/STM32_USB_Device_Library/Core/Src/usbd_core.c ****   (void)USBD_CMPST_ClearConfDesc(pdev);
 354:Middlewares/ST/STM32_USB_Device_Library/Core/Src/usbd_core.c **** 
 355:Middlewares/ST/STM32_USB_Device_Library/Core/Src/usbd_core.c ****   /* Reset the class ID and number of classes */
 356:Middlewares/ST/STM32_USB_Device_Library/Core/Src/usbd_core.c ****   pdev->classId = 0U;
 357:Middlewares/ST/STM32_USB_Device_Library/Core/Src/usbd_core.c ****   pdev->NumClasses = 0U;
 358:Middlewares/ST/STM32_USB_Device_Library/Core/Src/usbd_core.c **** 
 359:Middlewares/ST/STM32_USB_Device_Library/Core/Src/usbd_core.c ****   return ret;
 360:Middlewares/ST/STM32_USB_Device_Library/Core/Src/usbd_core.c **** }
 361:Middlewares/ST/STM32_USB_Device_Library/Core/Src/usbd_core.c **** 
 362:Middlewares/ST/STM32_USB_Device_Library/Core/Src/usbd_core.c **** 
 363:Middlewares/ST/STM32_USB_Device_Library/Core/Src/usbd_core.c **** #endif /* USE_USBD_COMPOSITE */
 364:Middlewares/ST/STM32_USB_Device_Library/Core/Src/usbd_core.c **** 
 365:Middlewares/ST/STM32_USB_Device_Library/Core/Src/usbd_core.c **** /**
 366:Middlewares/ST/STM32_USB_Device_Library/Core/Src/usbd_core.c ****   * @brief  USBD_Start
 367:Middlewares/ST/STM32_USB_Device_Library/Core/Src/usbd_core.c ****   *         Start the USB Device Core.
 368:Middlewares/ST/STM32_USB_Device_Library/Core/Src/usbd_core.c ****   * @param  pdev: Device Handle
 369:Middlewares/ST/STM32_USB_Device_Library/Core/Src/usbd_core.c ****   * @retval USBD Status
 370:Middlewares/ST/STM32_USB_Device_Library/Core/Src/usbd_core.c ****   */
 371:Middlewares/ST/STM32_USB_Device_Library/Core/Src/usbd_core.c **** USBD_StatusTypeDef USBD_Start(USBD_HandleTypeDef *pdev)
 372:Middlewares/ST/STM32_USB_Device_Library/Core/Src/usbd_core.c **** {
 326              		.loc 1 372 1 is_stmt 1 view -0
 327              		.cfi_startproc
 328              		@ args = 0, pretend = 0, frame = 0
 329              		@ frame_needed = 0, uses_anonymous_args = 0
 330              		.loc 1 372 1 is_stmt 0 view .LVU88
 331 0000 10B5     		push	{r4, lr}
 332              	.LCFI4:
 333              		.cfi_def_cfa_offset 8
 334              		.cfi_offset 4, -8
 335              		.cfi_offset 14, -4
 373:Middlewares/ST/STM32_USB_Device_Library/Core/Src/usbd_core.c **** #ifdef USE_USBD_COMPOSITE
 374:Middlewares/ST/STM32_USB_Device_Library/Core/Src/usbd_core.c ****   pdev->classId = 0U;
 375:Middlewares/ST/STM32_USB_Device_Library/Core/Src/usbd_core.c **** #endif /* USE_USBD_COMPOSITE */
 376:Middlewares/ST/STM32_USB_Device_Library/Core/Src/usbd_core.c **** 
 377:Middlewares/ST/STM32_USB_Device_Library/Core/Src/usbd_core.c ****   /* Start the low level driver  */
 378:Middlewares/ST/STM32_USB_Device_Library/Core/Src/usbd_core.c ****   return USBD_LL_Start(pdev);
 336              		.loc 1 378 3 is_stmt 1 view .LVU89
 337              		.loc 1 378 10 is_stmt 0 view .LVU90
 338 0002 FFF7FEFF 		bl	USBD_LL_Start
 339              	.LVL23:
 379:Middlewares/ST/STM32_USB_Device_Library/Core/Src/usbd_core.c **** }
 340              		.loc 1 379 1 view .LVU91
 341              		@ sp needed
 342 0006 10BD     		pop	{r4, pc}
 343              		.cfi_endproc
 344              	.LFE503:
 346              		.section	.text.USBD_Stop,"ax",%progbits
 347              		.align	1
ARM GAS  /tmp/ccrU7oA5.s 			page 14


 348              		.global	USBD_Stop
 349              		.syntax unified
 350              		.code	16
 351              		.thumb_func
 353              	USBD_Stop:
 354              	.LVL24:
 355              	.LFB504:
 380:Middlewares/ST/STM32_USB_Device_Library/Core/Src/usbd_core.c **** 
 381:Middlewares/ST/STM32_USB_Device_Library/Core/Src/usbd_core.c **** /**
 382:Middlewares/ST/STM32_USB_Device_Library/Core/Src/usbd_core.c ****   * @brief  USBD_Stop
 383:Middlewares/ST/STM32_USB_Device_Library/Core/Src/usbd_core.c ****   *         Stop the USB Device Core.
 384:Middlewares/ST/STM32_USB_Device_Library/Core/Src/usbd_core.c ****   * @param  pdev: Device Handle
 385:Middlewares/ST/STM32_USB_Device_Library/Core/Src/usbd_core.c ****   * @retval USBD Status
 386:Middlewares/ST/STM32_USB_Device_Library/Core/Src/usbd_core.c ****   */
 387:Middlewares/ST/STM32_USB_Device_Library/Core/Src/usbd_core.c **** USBD_StatusTypeDef USBD_Stop(USBD_HandleTypeDef *pdev)
 388:Middlewares/ST/STM32_USB_Device_Library/Core/Src/usbd_core.c **** {
 356              		.loc 1 388 1 is_stmt 1 view -0
 357              		.cfi_startproc
 358              		@ args = 0, pretend = 0, frame = 0
 359              		@ frame_needed = 0, uses_anonymous_args = 0
 360              		.loc 1 388 1 is_stmt 0 view .LVU93
 361 0000 10B5     		push	{r4, lr}
 362              	.LCFI5:
 363              		.cfi_def_cfa_offset 8
 364              		.cfi_offset 4, -8
 365              		.cfi_offset 14, -4
 366 0002 0400     		movs	r4, r0
 389:Middlewares/ST/STM32_USB_Device_Library/Core/Src/usbd_core.c ****   /* Disconnect USB Device */
 390:Middlewares/ST/STM32_USB_Device_Library/Core/Src/usbd_core.c ****   (void)USBD_LL_Stop(pdev);
 367              		.loc 1 390 3 is_stmt 1 view .LVU94
 368              		.loc 1 390 9 is_stmt 0 view .LVU95
 369 0004 FFF7FEFF 		bl	USBD_LL_Stop
 370              	.LVL25:
 391:Middlewares/ST/STM32_USB_Device_Library/Core/Src/usbd_core.c **** 
 392:Middlewares/ST/STM32_USB_Device_Library/Core/Src/usbd_core.c ****   /* Free Class Resources */
 393:Middlewares/ST/STM32_USB_Device_Library/Core/Src/usbd_core.c **** #ifdef USE_USBD_COMPOSITE
 394:Middlewares/ST/STM32_USB_Device_Library/Core/Src/usbd_core.c ****   /* Parse the table of classes in use */
 395:Middlewares/ST/STM32_USB_Device_Library/Core/Src/usbd_core.c ****   for (uint32_t i = 0U; i < USBD_MAX_SUPPORTED_CLASS; i++)
 396:Middlewares/ST/STM32_USB_Device_Library/Core/Src/usbd_core.c ****   {
 397:Middlewares/ST/STM32_USB_Device_Library/Core/Src/usbd_core.c ****     /* Check if current class is in use */
 398:Middlewares/ST/STM32_USB_Device_Library/Core/Src/usbd_core.c ****     if ((pdev->tclasslist[i].Active) == 1U)
 399:Middlewares/ST/STM32_USB_Device_Library/Core/Src/usbd_core.c ****     {
 400:Middlewares/ST/STM32_USB_Device_Library/Core/Src/usbd_core.c ****       if (pdev->pClass[i] != NULL)
 401:Middlewares/ST/STM32_USB_Device_Library/Core/Src/usbd_core.c ****       {
 402:Middlewares/ST/STM32_USB_Device_Library/Core/Src/usbd_core.c ****         pdev->classId = i;
 403:Middlewares/ST/STM32_USB_Device_Library/Core/Src/usbd_core.c ****         /* Free Class Resources */
 404:Middlewares/ST/STM32_USB_Device_Library/Core/Src/usbd_core.c ****         (void)pdev->pClass[i]->DeInit(pdev, (uint8_t)pdev->dev_config);
 405:Middlewares/ST/STM32_USB_Device_Library/Core/Src/usbd_core.c ****       }
 406:Middlewares/ST/STM32_USB_Device_Library/Core/Src/usbd_core.c ****     }
 407:Middlewares/ST/STM32_USB_Device_Library/Core/Src/usbd_core.c ****   }
 408:Middlewares/ST/STM32_USB_Device_Library/Core/Src/usbd_core.c **** 
 409:Middlewares/ST/STM32_USB_Device_Library/Core/Src/usbd_core.c ****   /* Reset the class ID */
 410:Middlewares/ST/STM32_USB_Device_Library/Core/Src/usbd_core.c ****   pdev->classId = 0U;
 411:Middlewares/ST/STM32_USB_Device_Library/Core/Src/usbd_core.c **** #else
 412:Middlewares/ST/STM32_USB_Device_Library/Core/Src/usbd_core.c ****   if (pdev->pClass[0] != NULL)
 371              		.loc 1 412 3 is_stmt 1 view .LVU96
 372              		.loc 1 412 19 is_stmt 0 view .LVU97
ARM GAS  /tmp/ccrU7oA5.s 			page 15


 373 0008 AE23     		movs	r3, #174
 374 000a 9B00     		lsls	r3, r3, #2
 375 000c E358     		ldr	r3, [r4, r3]
 376              		.loc 1 412 6 view .LVU98
 377 000e 002B     		cmp	r3, #0
 378 0010 03D0     		beq	.L19
 413:Middlewares/ST/STM32_USB_Device_Library/Core/Src/usbd_core.c ****   {
 414:Middlewares/ST/STM32_USB_Device_Library/Core/Src/usbd_core.c ****     (void)pdev->pClass[0]->DeInit(pdev, (uint8_t)pdev->dev_config);
 379              		.loc 1 414 5 is_stmt 1 view .LVU99
 380              		.loc 1 414 26 is_stmt 0 view .LVU100
 381 0012 5B68     		ldr	r3, [r3, #4]
 382              		.loc 1 414 11 view .LVU101
 383 0014 2179     		ldrb	r1, [r4, #4]
 384 0016 2000     		movs	r0, r4
 385 0018 9847     		blx	r3
 386              	.LVL26:
 387              	.L19:
 415:Middlewares/ST/STM32_USB_Device_Library/Core/Src/usbd_core.c ****   }
 416:Middlewares/ST/STM32_USB_Device_Library/Core/Src/usbd_core.c **** #endif /* USE_USBD_COMPOSITE */
 417:Middlewares/ST/STM32_USB_Device_Library/Core/Src/usbd_core.c **** 
 418:Middlewares/ST/STM32_USB_Device_Library/Core/Src/usbd_core.c ****   return USBD_OK;
 388              		.loc 1 418 3 is_stmt 1 view .LVU102
 419:Middlewares/ST/STM32_USB_Device_Library/Core/Src/usbd_core.c **** }
 389              		.loc 1 419 1 is_stmt 0 view .LVU103
 390 001a 0020     		movs	r0, #0
 391              		@ sp needed
 392              	.LVL27:
 393              		.loc 1 419 1 view .LVU104
 394 001c 10BD     		pop	{r4, pc}
 395              		.cfi_endproc
 396              	.LFE504:
 398              		.section	.text.USBD_RunTestMode,"ax",%progbits
 399              		.align	1
 400              		.global	USBD_RunTestMode
 401              		.syntax unified
 402              		.code	16
 403              		.thumb_func
 405              	USBD_RunTestMode:
 406              	.LVL28:
 407              	.LFB505:
 420:Middlewares/ST/STM32_USB_Device_Library/Core/Src/usbd_core.c **** 
 421:Middlewares/ST/STM32_USB_Device_Library/Core/Src/usbd_core.c **** /**
 422:Middlewares/ST/STM32_USB_Device_Library/Core/Src/usbd_core.c ****   * @brief  USBD_RunTestMode
 423:Middlewares/ST/STM32_USB_Device_Library/Core/Src/usbd_core.c ****   *         Launch test mode process
 424:Middlewares/ST/STM32_USB_Device_Library/Core/Src/usbd_core.c ****   * @param  pdev: device instance
 425:Middlewares/ST/STM32_USB_Device_Library/Core/Src/usbd_core.c ****   * @retval status
 426:Middlewares/ST/STM32_USB_Device_Library/Core/Src/usbd_core.c ****   */
 427:Middlewares/ST/STM32_USB_Device_Library/Core/Src/usbd_core.c **** USBD_StatusTypeDef USBD_RunTestMode(USBD_HandleTypeDef *pdev)
 428:Middlewares/ST/STM32_USB_Device_Library/Core/Src/usbd_core.c **** {
 408              		.loc 1 428 1 is_stmt 1 view -0
 409              		.cfi_startproc
 410              		@ args = 0, pretend = 0, frame = 0
 411              		@ frame_needed = 0, uses_anonymous_args = 0
 412              		@ link register save eliminated.
 429:Middlewares/ST/STM32_USB_Device_Library/Core/Src/usbd_core.c **** #ifdef USBD_HS_TESTMODE_ENABLE
 430:Middlewares/ST/STM32_USB_Device_Library/Core/Src/usbd_core.c ****   USBD_StatusTypeDef ret;
 431:Middlewares/ST/STM32_USB_Device_Library/Core/Src/usbd_core.c **** 
ARM GAS  /tmp/ccrU7oA5.s 			page 16


 432:Middlewares/ST/STM32_USB_Device_Library/Core/Src/usbd_core.c ****   /* Run USB HS test mode */
 433:Middlewares/ST/STM32_USB_Device_Library/Core/Src/usbd_core.c ****   ret = USBD_LL_SetTestMode(pdev, pdev->dev_test_mode);
 434:Middlewares/ST/STM32_USB_Device_Library/Core/Src/usbd_core.c **** 
 435:Middlewares/ST/STM32_USB_Device_Library/Core/Src/usbd_core.c ****   return ret;
 436:Middlewares/ST/STM32_USB_Device_Library/Core/Src/usbd_core.c **** #else
 437:Middlewares/ST/STM32_USB_Device_Library/Core/Src/usbd_core.c ****   /* Prevent unused argument compilation warning */
 438:Middlewares/ST/STM32_USB_Device_Library/Core/Src/usbd_core.c ****   UNUSED(pdev);
 413              		.loc 1 438 3 view .LVU106
 439:Middlewares/ST/STM32_USB_Device_Library/Core/Src/usbd_core.c **** 
 440:Middlewares/ST/STM32_USB_Device_Library/Core/Src/usbd_core.c ****   return USBD_OK;
 414              		.loc 1 440 3 view .LVU107
 441:Middlewares/ST/STM32_USB_Device_Library/Core/Src/usbd_core.c **** #endif /* USBD_HS_TESTMODE_ENABLE */
 442:Middlewares/ST/STM32_USB_Device_Library/Core/Src/usbd_core.c **** }
 415              		.loc 1 442 1 is_stmt 0 view .LVU108
 416 0000 0020     		movs	r0, #0
 417              	.LVL29:
 418              		.loc 1 442 1 view .LVU109
 419              		@ sp needed
 420 0002 7047     		bx	lr
 421              		.cfi_endproc
 422              	.LFE505:
 424              		.section	.text.USBD_SetClassConfig,"ax",%progbits
 425              		.align	1
 426              		.global	USBD_SetClassConfig
 427              		.syntax unified
 428              		.code	16
 429              		.thumb_func
 431              	USBD_SetClassConfig:
 432              	.LVL30:
 433              	.LFB506:
 443:Middlewares/ST/STM32_USB_Device_Library/Core/Src/usbd_core.c **** 
 444:Middlewares/ST/STM32_USB_Device_Library/Core/Src/usbd_core.c **** /**
 445:Middlewares/ST/STM32_USB_Device_Library/Core/Src/usbd_core.c ****   * @brief  USBD_SetClassConfig
 446:Middlewares/ST/STM32_USB_Device_Library/Core/Src/usbd_core.c ****   *        Configure device and start the interface
 447:Middlewares/ST/STM32_USB_Device_Library/Core/Src/usbd_core.c ****   * @param  pdev: device instance
 448:Middlewares/ST/STM32_USB_Device_Library/Core/Src/usbd_core.c ****   * @param  cfgidx: configuration index
 449:Middlewares/ST/STM32_USB_Device_Library/Core/Src/usbd_core.c ****   * @retval status
 450:Middlewares/ST/STM32_USB_Device_Library/Core/Src/usbd_core.c ****   */
 451:Middlewares/ST/STM32_USB_Device_Library/Core/Src/usbd_core.c **** 
 452:Middlewares/ST/STM32_USB_Device_Library/Core/Src/usbd_core.c **** USBD_StatusTypeDef USBD_SetClassConfig(USBD_HandleTypeDef *pdev, uint8_t cfgidx)
 453:Middlewares/ST/STM32_USB_Device_Library/Core/Src/usbd_core.c **** {
 434              		.loc 1 453 1 is_stmt 1 view -0
 435              		.cfi_startproc
 436              		@ args = 0, pretend = 0, frame = 0
 437              		@ frame_needed = 0, uses_anonymous_args = 0
 438              		.loc 1 453 1 is_stmt 0 view .LVU111
 439 0000 10B5     		push	{r4, lr}
 440              	.LCFI6:
 441              		.cfi_def_cfa_offset 8
 442              		.cfi_offset 4, -8
 443              		.cfi_offset 14, -4
 454:Middlewares/ST/STM32_USB_Device_Library/Core/Src/usbd_core.c ****   USBD_StatusTypeDef ret = USBD_OK;
 444              		.loc 1 454 3 is_stmt 1 view .LVU112
 445              	.LVL31:
 455:Middlewares/ST/STM32_USB_Device_Library/Core/Src/usbd_core.c **** 
 456:Middlewares/ST/STM32_USB_Device_Library/Core/Src/usbd_core.c **** #ifdef USE_USBD_COMPOSITE
 457:Middlewares/ST/STM32_USB_Device_Library/Core/Src/usbd_core.c ****   /* Parse the table of classes in use */
ARM GAS  /tmp/ccrU7oA5.s 			page 17


 458:Middlewares/ST/STM32_USB_Device_Library/Core/Src/usbd_core.c ****   for (uint32_t i = 0U; i < USBD_MAX_SUPPORTED_CLASS; i++)
 459:Middlewares/ST/STM32_USB_Device_Library/Core/Src/usbd_core.c ****   {
 460:Middlewares/ST/STM32_USB_Device_Library/Core/Src/usbd_core.c ****     /* Check if current class is in use */
 461:Middlewares/ST/STM32_USB_Device_Library/Core/Src/usbd_core.c ****     if ((pdev->tclasslist[i].Active) == 1U)
 462:Middlewares/ST/STM32_USB_Device_Library/Core/Src/usbd_core.c ****     {
 463:Middlewares/ST/STM32_USB_Device_Library/Core/Src/usbd_core.c ****       if (pdev->pClass[i] != NULL)
 464:Middlewares/ST/STM32_USB_Device_Library/Core/Src/usbd_core.c ****       {
 465:Middlewares/ST/STM32_USB_Device_Library/Core/Src/usbd_core.c ****         pdev->classId = i;
 466:Middlewares/ST/STM32_USB_Device_Library/Core/Src/usbd_core.c ****         /* Set configuration  and Start the Class*/
 467:Middlewares/ST/STM32_USB_Device_Library/Core/Src/usbd_core.c ****         if (pdev->pClass[i]->Init(pdev, cfgidx) != 0U)
 468:Middlewares/ST/STM32_USB_Device_Library/Core/Src/usbd_core.c ****         {
 469:Middlewares/ST/STM32_USB_Device_Library/Core/Src/usbd_core.c ****           ret = USBD_FAIL;
 470:Middlewares/ST/STM32_USB_Device_Library/Core/Src/usbd_core.c ****         }
 471:Middlewares/ST/STM32_USB_Device_Library/Core/Src/usbd_core.c ****       }
 472:Middlewares/ST/STM32_USB_Device_Library/Core/Src/usbd_core.c ****     }
 473:Middlewares/ST/STM32_USB_Device_Library/Core/Src/usbd_core.c ****   }
 474:Middlewares/ST/STM32_USB_Device_Library/Core/Src/usbd_core.c **** #else
 475:Middlewares/ST/STM32_USB_Device_Library/Core/Src/usbd_core.c ****   if (pdev->pClass[0] != NULL)
 446              		.loc 1 475 3 view .LVU113
 447              		.loc 1 475 19 is_stmt 0 view .LVU114
 448 0002 AE23     		movs	r3, #174
 449 0004 9B00     		lsls	r3, r3, #2
 450 0006 C358     		ldr	r3, [r0, r3]
 451              		.loc 1 475 6 view .LVU115
 452 0008 002B     		cmp	r3, #0
 453 000a 02D0     		beq	.L23
 476:Middlewares/ST/STM32_USB_Device_Library/Core/Src/usbd_core.c ****   {
 477:Middlewares/ST/STM32_USB_Device_Library/Core/Src/usbd_core.c ****     /* Set configuration and Start the Class */
 478:Middlewares/ST/STM32_USB_Device_Library/Core/Src/usbd_core.c ****     ret = (USBD_StatusTypeDef)pdev->pClass[0]->Init(pdev, cfgidx);
 454              		.loc 1 478 5 is_stmt 1 view .LVU116
 455              		.loc 1 478 46 is_stmt 0 view .LVU117
 456 000c 1B68     		ldr	r3, [r3]
 457              		.loc 1 478 31 view .LVU118
 458 000e 9847     		blx	r3
 459              	.LVL32:
 460              	.L22:
 479:Middlewares/ST/STM32_USB_Device_Library/Core/Src/usbd_core.c ****   }
 480:Middlewares/ST/STM32_USB_Device_Library/Core/Src/usbd_core.c **** #endif /* USE_USBD_COMPOSITE */
 481:Middlewares/ST/STM32_USB_Device_Library/Core/Src/usbd_core.c **** 
 482:Middlewares/ST/STM32_USB_Device_Library/Core/Src/usbd_core.c ****   return ret;
 461              		.loc 1 482 3 is_stmt 1 view .LVU119
 483:Middlewares/ST/STM32_USB_Device_Library/Core/Src/usbd_core.c **** }
 462              		.loc 1 483 1 is_stmt 0 view .LVU120
 463              		@ sp needed
 464 0010 10BD     		pop	{r4, pc}
 465              	.LVL33:
 466              	.L23:
 454:Middlewares/ST/STM32_USB_Device_Library/Core/Src/usbd_core.c **** 
 467              		.loc 1 454 22 view .LVU121
 468 0012 0020     		movs	r0, #0
 469              	.LVL34:
 454:Middlewares/ST/STM32_USB_Device_Library/Core/Src/usbd_core.c **** 
 470              		.loc 1 454 22 view .LVU122
 471 0014 FCE7     		b	.L22
 472              		.cfi_endproc
 473              	.LFE506:
 475              		.section	.text.USBD_ClrClassConfig,"ax",%progbits
ARM GAS  /tmp/ccrU7oA5.s 			page 18


 476              		.align	1
 477              		.global	USBD_ClrClassConfig
 478              		.syntax unified
 479              		.code	16
 480              		.thumb_func
 482              	USBD_ClrClassConfig:
 483              	.LVL35:
 484              	.LFB507:
 484:Middlewares/ST/STM32_USB_Device_Library/Core/Src/usbd_core.c **** 
 485:Middlewares/ST/STM32_USB_Device_Library/Core/Src/usbd_core.c **** /**
 486:Middlewares/ST/STM32_USB_Device_Library/Core/Src/usbd_core.c ****   * @brief  USBD_ClrClassConfig
 487:Middlewares/ST/STM32_USB_Device_Library/Core/Src/usbd_core.c ****   *         Clear current configuration
 488:Middlewares/ST/STM32_USB_Device_Library/Core/Src/usbd_core.c ****   * @param  pdev: device instance
 489:Middlewares/ST/STM32_USB_Device_Library/Core/Src/usbd_core.c ****   * @param  cfgidx: configuration index
 490:Middlewares/ST/STM32_USB_Device_Library/Core/Src/usbd_core.c ****   * @retval status: USBD_StatusTypeDef
 491:Middlewares/ST/STM32_USB_Device_Library/Core/Src/usbd_core.c ****   */
 492:Middlewares/ST/STM32_USB_Device_Library/Core/Src/usbd_core.c **** USBD_StatusTypeDef USBD_ClrClassConfig(USBD_HandleTypeDef *pdev, uint8_t cfgidx)
 493:Middlewares/ST/STM32_USB_Device_Library/Core/Src/usbd_core.c **** {
 485              		.loc 1 493 1 is_stmt 1 view -0
 486              		.cfi_startproc
 487              		@ args = 0, pretend = 0, frame = 0
 488              		@ frame_needed = 0, uses_anonymous_args = 0
 489              		.loc 1 493 1 is_stmt 0 view .LVU124
 490 0000 10B5     		push	{r4, lr}
 491              	.LCFI7:
 492              		.cfi_def_cfa_offset 8
 493              		.cfi_offset 4, -8
 494              		.cfi_offset 14, -4
 494:Middlewares/ST/STM32_USB_Device_Library/Core/Src/usbd_core.c ****   USBD_StatusTypeDef ret = USBD_OK;
 495              		.loc 1 494 3 is_stmt 1 view .LVU125
 496              	.LVL36:
 495:Middlewares/ST/STM32_USB_Device_Library/Core/Src/usbd_core.c **** 
 496:Middlewares/ST/STM32_USB_Device_Library/Core/Src/usbd_core.c **** #ifdef USE_USBD_COMPOSITE
 497:Middlewares/ST/STM32_USB_Device_Library/Core/Src/usbd_core.c ****   /* Parse the table of classes in use */
 498:Middlewares/ST/STM32_USB_Device_Library/Core/Src/usbd_core.c ****   for (uint32_t i = 0U; i < USBD_MAX_SUPPORTED_CLASS; i++)
 499:Middlewares/ST/STM32_USB_Device_Library/Core/Src/usbd_core.c ****   {
 500:Middlewares/ST/STM32_USB_Device_Library/Core/Src/usbd_core.c ****     /* Check if current class is in use */
 501:Middlewares/ST/STM32_USB_Device_Library/Core/Src/usbd_core.c ****     if ((pdev->tclasslist[i].Active) == 1U)
 502:Middlewares/ST/STM32_USB_Device_Library/Core/Src/usbd_core.c ****     {
 503:Middlewares/ST/STM32_USB_Device_Library/Core/Src/usbd_core.c ****       if (pdev->pClass[i] != NULL)
 504:Middlewares/ST/STM32_USB_Device_Library/Core/Src/usbd_core.c ****       {
 505:Middlewares/ST/STM32_USB_Device_Library/Core/Src/usbd_core.c ****         pdev->classId = i;
 506:Middlewares/ST/STM32_USB_Device_Library/Core/Src/usbd_core.c ****         /* Clear configuration  and De-initialize the Class process */
 507:Middlewares/ST/STM32_USB_Device_Library/Core/Src/usbd_core.c ****         if (pdev->pClass[i]->DeInit(pdev, cfgidx) != 0U)
 508:Middlewares/ST/STM32_USB_Device_Library/Core/Src/usbd_core.c ****         {
 509:Middlewares/ST/STM32_USB_Device_Library/Core/Src/usbd_core.c ****           ret = USBD_FAIL;
 510:Middlewares/ST/STM32_USB_Device_Library/Core/Src/usbd_core.c ****         }
 511:Middlewares/ST/STM32_USB_Device_Library/Core/Src/usbd_core.c ****       }
 512:Middlewares/ST/STM32_USB_Device_Library/Core/Src/usbd_core.c ****     }
 513:Middlewares/ST/STM32_USB_Device_Library/Core/Src/usbd_core.c ****   }
 514:Middlewares/ST/STM32_USB_Device_Library/Core/Src/usbd_core.c **** #else
 515:Middlewares/ST/STM32_USB_Device_Library/Core/Src/usbd_core.c ****   /* Clear configuration  and De-initialize the Class process */
 516:Middlewares/ST/STM32_USB_Device_Library/Core/Src/usbd_core.c ****   if (pdev->pClass[0]->DeInit(pdev, cfgidx) != 0U)
 497              		.loc 1 516 3 view .LVU126
 498              		.loc 1 516 19 is_stmt 0 view .LVU127
 499 0002 AE23     		movs	r3, #174
 500 0004 9B00     		lsls	r3, r3, #2
ARM GAS  /tmp/ccrU7oA5.s 			page 19


 501 0006 C358     		ldr	r3, [r0, r3]
 502              		.loc 1 516 22 view .LVU128
 503 0008 5B68     		ldr	r3, [r3, #4]
 504              		.loc 1 516 7 view .LVU129
 505 000a 9847     		blx	r3
 506              	.LVL37:
 507              		.loc 1 516 6 discriminator 1 view .LVU130
 508 000c 0028     		cmp	r0, #0
 509 000e 00D1     		bne	.L27
 510              	.L25:
 511              	.LVL38:
 517:Middlewares/ST/STM32_USB_Device_Library/Core/Src/usbd_core.c ****   {
 518:Middlewares/ST/STM32_USB_Device_Library/Core/Src/usbd_core.c ****     ret = USBD_FAIL;
 519:Middlewares/ST/STM32_USB_Device_Library/Core/Src/usbd_core.c ****   }
 520:Middlewares/ST/STM32_USB_Device_Library/Core/Src/usbd_core.c **** #endif /* USE_USBD_COMPOSITE */
 521:Middlewares/ST/STM32_USB_Device_Library/Core/Src/usbd_core.c **** 
 522:Middlewares/ST/STM32_USB_Device_Library/Core/Src/usbd_core.c ****   return ret;
 512              		.loc 1 522 3 is_stmt 1 view .LVU131
 523:Middlewares/ST/STM32_USB_Device_Library/Core/Src/usbd_core.c **** }
 513              		.loc 1 523 1 is_stmt 0 view .LVU132
 514              		@ sp needed
 515 0010 10BD     		pop	{r4, pc}
 516              	.LVL39:
 517              	.L27:
 518:Middlewares/ST/STM32_USB_Device_Library/Core/Src/usbd_core.c ****   }
 518              		.loc 1 518 9 view .LVU133
 519 0012 0320     		movs	r0, #3
 520 0014 FCE7     		b	.L25
 521              		.cfi_endproc
 522              	.LFE507:
 524              		.section	.text.USBD_LL_SetupStage,"ax",%progbits
 525              		.align	1
 526              		.global	USBD_LL_SetupStage
 527              		.syntax unified
 528              		.code	16
 529              		.thumb_func
 531              	USBD_LL_SetupStage:
 532              	.LVL40:
 533              	.LFB508:
 524:Middlewares/ST/STM32_USB_Device_Library/Core/Src/usbd_core.c **** 
 525:Middlewares/ST/STM32_USB_Device_Library/Core/Src/usbd_core.c **** 
 526:Middlewares/ST/STM32_USB_Device_Library/Core/Src/usbd_core.c **** /**
 527:Middlewares/ST/STM32_USB_Device_Library/Core/Src/usbd_core.c ****   * @brief  USBD_LL_SetupStage
 528:Middlewares/ST/STM32_USB_Device_Library/Core/Src/usbd_core.c ****   *         Handle the setup stage
 529:Middlewares/ST/STM32_USB_Device_Library/Core/Src/usbd_core.c ****   * @param  pdev: device instance
 530:Middlewares/ST/STM32_USB_Device_Library/Core/Src/usbd_core.c ****   * @retval status
 531:Middlewares/ST/STM32_USB_Device_Library/Core/Src/usbd_core.c ****   */
 532:Middlewares/ST/STM32_USB_Device_Library/Core/Src/usbd_core.c **** USBD_StatusTypeDef USBD_LL_SetupStage(USBD_HandleTypeDef *pdev, uint8_t *psetup)
 533:Middlewares/ST/STM32_USB_Device_Library/Core/Src/usbd_core.c **** {
 534              		.loc 1 533 1 is_stmt 1 view -0
 535              		.cfi_startproc
 536              		@ args = 0, pretend = 0, frame = 0
 537              		@ frame_needed = 0, uses_anonymous_args = 0
 538              		.loc 1 533 1 is_stmt 0 view .LVU135
 539 0000 70B5     		push	{r4, r5, r6, lr}
 540              	.LCFI8:
 541              		.cfi_def_cfa_offset 16
ARM GAS  /tmp/ccrU7oA5.s 			page 20


 542              		.cfi_offset 4, -16
 543              		.cfi_offset 5, -12
 544              		.cfi_offset 6, -8
 545              		.cfi_offset 14, -4
 546 0002 0400     		movs	r4, r0
 534:Middlewares/ST/STM32_USB_Device_Library/Core/Src/usbd_core.c ****   USBD_StatusTypeDef ret;
 547              		.loc 1 534 3 is_stmt 1 view .LVU136
 535:Middlewares/ST/STM32_USB_Device_Library/Core/Src/usbd_core.c **** 
 536:Middlewares/ST/STM32_USB_Device_Library/Core/Src/usbd_core.c ****   USBD_ParseSetupRequest(&pdev->request, psetup);
 548              		.loc 1 536 3 view .LVU137
 549 0004 154B     		ldr	r3, .L33
 550 0006 C518     		adds	r5, r0, r3
 551 0008 2800     		movs	r0, r5
 552              	.LVL41:
 553              		.loc 1 536 3 is_stmt 0 view .LVU138
 554 000a FFF7FEFF 		bl	USBD_ParseSetupRequest
 555              	.LVL42:
 537:Middlewares/ST/STM32_USB_Device_Library/Core/Src/usbd_core.c **** 
 538:Middlewares/ST/STM32_USB_Device_Library/Core/Src/usbd_core.c ****   pdev->ep0_state = USBD_EP0_SETUP;
 556              		.loc 1 538 3 is_stmt 1 view .LVU139
 557              		.loc 1 538 19 is_stmt 0 view .LVU140
 558 000e A523     		movs	r3, #165
 559 0010 9B00     		lsls	r3, r3, #2
 560 0012 0122     		movs	r2, #1
 561 0014 E250     		str	r2, [r4, r3]
 539:Middlewares/ST/STM32_USB_Device_Library/Core/Src/usbd_core.c **** 
 540:Middlewares/ST/STM32_USB_Device_Library/Core/Src/usbd_core.c ****   pdev->ep0_data_len = pdev->request.wLength;
 562              		.loc 1 540 3 is_stmt 1 view .LVU141
 563              		.loc 1 540 37 is_stmt 0 view .LVU142
 564 0016 1C33     		adds	r3, r3, #28
 565 0018 E25A     		ldrh	r2, [r4, r3]
 566              		.loc 1 540 22 view .LVU143
 567 001a 183B     		subs	r3, r3, #24
 568 001c E250     		str	r2, [r4, r3]
 541:Middlewares/ST/STM32_USB_Device_Library/Core/Src/usbd_core.c **** 
 542:Middlewares/ST/STM32_USB_Device_Library/Core/Src/usbd_core.c ****   switch (pdev->request.bmRequest & 0x1FU)
 569              		.loc 1 542 3 is_stmt 1 view .LVU144
 570              		.loc 1 542 24 is_stmt 0 view .LVU145
 571 001e 0F4B     		ldr	r3, .L33
 572 0020 E15C     		ldrb	r1, [r4, r3]
 573 0022 1F23     		movs	r3, #31
 574 0024 0B40     		ands	r3, r1
 575              		.loc 1 542 3 view .LVU146
 576 0026 012B     		cmp	r3, #1
 577 0028 08D0     		beq	.L29
 578 002a 022B     		cmp	r3, #2
 579 002c 0BD0     		beq	.L30
 580 002e 002B     		cmp	r3, #0
 581 0030 0ED1     		bne	.L31
 543:Middlewares/ST/STM32_USB_Device_Library/Core/Src/usbd_core.c ****   {
 544:Middlewares/ST/STM32_USB_Device_Library/Core/Src/usbd_core.c ****     case USB_REQ_RECIPIENT_DEVICE:
 545:Middlewares/ST/STM32_USB_Device_Library/Core/Src/usbd_core.c ****       ret = USBD_StdDevReq(pdev, &pdev->request);
 582              		.loc 1 545 7 is_stmt 1 view .LVU147
 583              		.loc 1 545 13 is_stmt 0 view .LVU148
 584 0032 2900     		movs	r1, r5
 585 0034 2000     		movs	r0, r4
 586 0036 FFF7FEFF 		bl	USBD_StdDevReq
ARM GAS  /tmp/ccrU7oA5.s 			page 21


 587              	.LVL43:
 546:Middlewares/ST/STM32_USB_Device_Library/Core/Src/usbd_core.c ****       break;
 588              		.loc 1 546 7 is_stmt 1 view .LVU149
 589              	.L32:
 547:Middlewares/ST/STM32_USB_Device_Library/Core/Src/usbd_core.c **** 
 548:Middlewares/ST/STM32_USB_Device_Library/Core/Src/usbd_core.c ****     case USB_REQ_RECIPIENT_INTERFACE:
 549:Middlewares/ST/STM32_USB_Device_Library/Core/Src/usbd_core.c ****       ret = USBD_StdItfReq(pdev, &pdev->request);
 550:Middlewares/ST/STM32_USB_Device_Library/Core/Src/usbd_core.c ****       break;
 551:Middlewares/ST/STM32_USB_Device_Library/Core/Src/usbd_core.c **** 
 552:Middlewares/ST/STM32_USB_Device_Library/Core/Src/usbd_core.c ****     case USB_REQ_RECIPIENT_ENDPOINT:
 553:Middlewares/ST/STM32_USB_Device_Library/Core/Src/usbd_core.c ****       ret = USBD_StdEPReq(pdev, &pdev->request);
 554:Middlewares/ST/STM32_USB_Device_Library/Core/Src/usbd_core.c ****       break;
 555:Middlewares/ST/STM32_USB_Device_Library/Core/Src/usbd_core.c **** 
 556:Middlewares/ST/STM32_USB_Device_Library/Core/Src/usbd_core.c ****     default:
 557:Middlewares/ST/STM32_USB_Device_Library/Core/Src/usbd_core.c ****       ret = USBD_LL_StallEP(pdev, (pdev->request.bmRequest & 0x80U));
 558:Middlewares/ST/STM32_USB_Device_Library/Core/Src/usbd_core.c ****       break;
 559:Middlewares/ST/STM32_USB_Device_Library/Core/Src/usbd_core.c ****   }
 560:Middlewares/ST/STM32_USB_Device_Library/Core/Src/usbd_core.c **** 
 561:Middlewares/ST/STM32_USB_Device_Library/Core/Src/usbd_core.c ****   return ret;
 590              		.loc 1 561 3 view .LVU150
 562:Middlewares/ST/STM32_USB_Device_Library/Core/Src/usbd_core.c **** }
 591              		.loc 1 562 1 is_stmt 0 view .LVU151
 592              		@ sp needed
 593              	.LVL44:
 594              	.LVL45:
 595              		.loc 1 562 1 view .LVU152
 596 003a 70BD     		pop	{r4, r5, r6, pc}
 597              	.LVL46:
 598              	.L29:
 549:Middlewares/ST/STM32_USB_Device_Library/Core/Src/usbd_core.c ****       break;
 599              		.loc 1 549 7 is_stmt 1 view .LVU153
 549:Middlewares/ST/STM32_USB_Device_Library/Core/Src/usbd_core.c ****       break;
 600              		.loc 1 549 13 is_stmt 0 view .LVU154
 601 003c 2900     		movs	r1, r5
 602 003e 2000     		movs	r0, r4
 603 0040 FFF7FEFF 		bl	USBD_StdItfReq
 604              	.LVL47:
 550:Middlewares/ST/STM32_USB_Device_Library/Core/Src/usbd_core.c **** 
 605              		.loc 1 550 7 is_stmt 1 view .LVU155
 606 0044 F9E7     		b	.L32
 607              	.LVL48:
 608              	.L30:
 553:Middlewares/ST/STM32_USB_Device_Library/Core/Src/usbd_core.c ****       break;
 609              		.loc 1 553 7 view .LVU156
 553:Middlewares/ST/STM32_USB_Device_Library/Core/Src/usbd_core.c ****       break;
 610              		.loc 1 553 13 is_stmt 0 view .LVU157
 611 0046 2900     		movs	r1, r5
 612 0048 2000     		movs	r0, r4
 613 004a FFF7FEFF 		bl	USBD_StdEPReq
 614              	.LVL49:
 554:Middlewares/ST/STM32_USB_Device_Library/Core/Src/usbd_core.c **** 
 615              		.loc 1 554 7 is_stmt 1 view .LVU158
 616 004e F4E7     		b	.L32
 617              	.LVL50:
 618              	.L31:
 557:Middlewares/ST/STM32_USB_Device_Library/Core/Src/usbd_core.c ****       break;
 619              		.loc 1 557 7 view .LVU159
ARM GAS  /tmp/ccrU7oA5.s 			page 22


 557:Middlewares/ST/STM32_USB_Device_Library/Core/Src/usbd_core.c ****       break;
 620              		.loc 1 557 13 is_stmt 0 view .LVU160
 621 0050 7F23     		movs	r3, #127
 622 0052 9943     		bics	r1, r3
 623 0054 2000     		movs	r0, r4
 624 0056 FFF7FEFF 		bl	USBD_LL_StallEP
 625              	.LVL51:
 558:Middlewares/ST/STM32_USB_Device_Library/Core/Src/usbd_core.c ****   }
 626              		.loc 1 558 7 is_stmt 1 view .LVU161
 627 005a EEE7     		b	.L32
 628              	.L34:
 629              		.align	2
 630              	.L33:
 631 005c AA020000 		.word	682
 632              		.cfi_endproc
 633              	.LFE508:
 635              		.section	.text.USBD_LL_Reset,"ax",%progbits
 636              		.align	1
 637              		.global	USBD_LL_Reset
 638              		.syntax unified
 639              		.code	16
 640              		.thumb_func
 642              	USBD_LL_Reset:
 643              	.LVL52:
 644              	.LFB511:
 563:Middlewares/ST/STM32_USB_Device_Library/Core/Src/usbd_core.c **** 
 564:Middlewares/ST/STM32_USB_Device_Library/Core/Src/usbd_core.c **** /**
 565:Middlewares/ST/STM32_USB_Device_Library/Core/Src/usbd_core.c ****   * @brief  USBD_LL_DataOutStage
 566:Middlewares/ST/STM32_USB_Device_Library/Core/Src/usbd_core.c ****   *         Handle data OUT stage
 567:Middlewares/ST/STM32_USB_Device_Library/Core/Src/usbd_core.c ****   * @param  pdev: device instance
 568:Middlewares/ST/STM32_USB_Device_Library/Core/Src/usbd_core.c ****   * @param  epnum: endpoint index
 569:Middlewares/ST/STM32_USB_Device_Library/Core/Src/usbd_core.c ****   * @param  pdata: data pointer
 570:Middlewares/ST/STM32_USB_Device_Library/Core/Src/usbd_core.c ****   * @retval status
 571:Middlewares/ST/STM32_USB_Device_Library/Core/Src/usbd_core.c ****   */
 572:Middlewares/ST/STM32_USB_Device_Library/Core/Src/usbd_core.c **** USBD_StatusTypeDef USBD_LL_DataOutStage(USBD_HandleTypeDef *pdev,
 573:Middlewares/ST/STM32_USB_Device_Library/Core/Src/usbd_core.c ****                                         uint8_t epnum, uint8_t *pdata)
 574:Middlewares/ST/STM32_USB_Device_Library/Core/Src/usbd_core.c **** {
 575:Middlewares/ST/STM32_USB_Device_Library/Core/Src/usbd_core.c ****   USBD_EndpointTypeDef *pep;
 576:Middlewares/ST/STM32_USB_Device_Library/Core/Src/usbd_core.c ****   USBD_StatusTypeDef ret = USBD_OK;
 577:Middlewares/ST/STM32_USB_Device_Library/Core/Src/usbd_core.c ****   uint8_t idx;
 578:Middlewares/ST/STM32_USB_Device_Library/Core/Src/usbd_core.c **** 
 579:Middlewares/ST/STM32_USB_Device_Library/Core/Src/usbd_core.c ****   if (epnum == 0U)
 580:Middlewares/ST/STM32_USB_Device_Library/Core/Src/usbd_core.c ****   {
 581:Middlewares/ST/STM32_USB_Device_Library/Core/Src/usbd_core.c ****     pep = &pdev->ep_out[0];
 582:Middlewares/ST/STM32_USB_Device_Library/Core/Src/usbd_core.c **** 
 583:Middlewares/ST/STM32_USB_Device_Library/Core/Src/usbd_core.c ****     if (pdev->ep0_state == USBD_EP0_DATA_OUT)
 584:Middlewares/ST/STM32_USB_Device_Library/Core/Src/usbd_core.c ****     {
 585:Middlewares/ST/STM32_USB_Device_Library/Core/Src/usbd_core.c ****       if (pep->rem_length > pep->maxpacket)
 586:Middlewares/ST/STM32_USB_Device_Library/Core/Src/usbd_core.c ****       {
 587:Middlewares/ST/STM32_USB_Device_Library/Core/Src/usbd_core.c ****         pep->rem_length -= pep->maxpacket;
 588:Middlewares/ST/STM32_USB_Device_Library/Core/Src/usbd_core.c **** 
 589:Middlewares/ST/STM32_USB_Device_Library/Core/Src/usbd_core.c ****         (void)USBD_CtlContinueRx(pdev, pdata, MIN(pep->rem_length, pep->maxpacket));
 590:Middlewares/ST/STM32_USB_Device_Library/Core/Src/usbd_core.c ****       }
 591:Middlewares/ST/STM32_USB_Device_Library/Core/Src/usbd_core.c ****       else
 592:Middlewares/ST/STM32_USB_Device_Library/Core/Src/usbd_core.c ****       {
 593:Middlewares/ST/STM32_USB_Device_Library/Core/Src/usbd_core.c ****         /* Find the class ID relative to the current request */
 594:Middlewares/ST/STM32_USB_Device_Library/Core/Src/usbd_core.c ****         switch (pdev->request.bmRequest & 0x1FU)
ARM GAS  /tmp/ccrU7oA5.s 			page 23


 595:Middlewares/ST/STM32_USB_Device_Library/Core/Src/usbd_core.c ****         {
 596:Middlewares/ST/STM32_USB_Device_Library/Core/Src/usbd_core.c ****           case USB_REQ_RECIPIENT_DEVICE:
 597:Middlewares/ST/STM32_USB_Device_Library/Core/Src/usbd_core.c ****             /* Device requests must be managed by the first instantiated class
 598:Middlewares/ST/STM32_USB_Device_Library/Core/Src/usbd_core.c ****                (or duplicated by all classes for simplicity) */
 599:Middlewares/ST/STM32_USB_Device_Library/Core/Src/usbd_core.c ****             idx = 0U;
 600:Middlewares/ST/STM32_USB_Device_Library/Core/Src/usbd_core.c ****             break;
 601:Middlewares/ST/STM32_USB_Device_Library/Core/Src/usbd_core.c **** 
 602:Middlewares/ST/STM32_USB_Device_Library/Core/Src/usbd_core.c ****           case USB_REQ_RECIPIENT_INTERFACE:
 603:Middlewares/ST/STM32_USB_Device_Library/Core/Src/usbd_core.c ****             idx = USBD_CoreFindIF(pdev, LOBYTE(pdev->request.wIndex));
 604:Middlewares/ST/STM32_USB_Device_Library/Core/Src/usbd_core.c ****             break;
 605:Middlewares/ST/STM32_USB_Device_Library/Core/Src/usbd_core.c **** 
 606:Middlewares/ST/STM32_USB_Device_Library/Core/Src/usbd_core.c ****           case USB_REQ_RECIPIENT_ENDPOINT:
 607:Middlewares/ST/STM32_USB_Device_Library/Core/Src/usbd_core.c ****             idx = USBD_CoreFindEP(pdev, LOBYTE(pdev->request.wIndex));
 608:Middlewares/ST/STM32_USB_Device_Library/Core/Src/usbd_core.c ****             break;
 609:Middlewares/ST/STM32_USB_Device_Library/Core/Src/usbd_core.c **** 
 610:Middlewares/ST/STM32_USB_Device_Library/Core/Src/usbd_core.c ****           default:
 611:Middlewares/ST/STM32_USB_Device_Library/Core/Src/usbd_core.c ****             /* Back to the first class in case of doubt */
 612:Middlewares/ST/STM32_USB_Device_Library/Core/Src/usbd_core.c ****             idx = 0U;
 613:Middlewares/ST/STM32_USB_Device_Library/Core/Src/usbd_core.c ****             break;
 614:Middlewares/ST/STM32_USB_Device_Library/Core/Src/usbd_core.c ****         }
 615:Middlewares/ST/STM32_USB_Device_Library/Core/Src/usbd_core.c **** 
 616:Middlewares/ST/STM32_USB_Device_Library/Core/Src/usbd_core.c ****         if (idx < USBD_MAX_SUPPORTED_CLASS)
 617:Middlewares/ST/STM32_USB_Device_Library/Core/Src/usbd_core.c ****         {
 618:Middlewares/ST/STM32_USB_Device_Library/Core/Src/usbd_core.c ****           /* Setup the class ID and route the request to the relative class function */
 619:Middlewares/ST/STM32_USB_Device_Library/Core/Src/usbd_core.c ****           if (pdev->dev_state == USBD_STATE_CONFIGURED)
 620:Middlewares/ST/STM32_USB_Device_Library/Core/Src/usbd_core.c ****           {
 621:Middlewares/ST/STM32_USB_Device_Library/Core/Src/usbd_core.c ****             if (pdev->pClass[idx]->EP0_RxReady != NULL)
 622:Middlewares/ST/STM32_USB_Device_Library/Core/Src/usbd_core.c ****             {
 623:Middlewares/ST/STM32_USB_Device_Library/Core/Src/usbd_core.c ****               pdev->classId = idx;
 624:Middlewares/ST/STM32_USB_Device_Library/Core/Src/usbd_core.c ****               pdev->pClass[idx]->EP0_RxReady(pdev);
 625:Middlewares/ST/STM32_USB_Device_Library/Core/Src/usbd_core.c ****             }
 626:Middlewares/ST/STM32_USB_Device_Library/Core/Src/usbd_core.c ****           }
 627:Middlewares/ST/STM32_USB_Device_Library/Core/Src/usbd_core.c ****         }
 628:Middlewares/ST/STM32_USB_Device_Library/Core/Src/usbd_core.c **** 
 629:Middlewares/ST/STM32_USB_Device_Library/Core/Src/usbd_core.c ****         (void)USBD_CtlSendStatus(pdev);
 630:Middlewares/ST/STM32_USB_Device_Library/Core/Src/usbd_core.c ****       }
 631:Middlewares/ST/STM32_USB_Device_Library/Core/Src/usbd_core.c ****     }
 632:Middlewares/ST/STM32_USB_Device_Library/Core/Src/usbd_core.c ****     else
 633:Middlewares/ST/STM32_USB_Device_Library/Core/Src/usbd_core.c ****     {
 634:Middlewares/ST/STM32_USB_Device_Library/Core/Src/usbd_core.c **** #if 0
 635:Middlewares/ST/STM32_USB_Device_Library/Core/Src/usbd_core.c ****       if (pdev->ep0_state == USBD_EP0_STATUS_OUT)
 636:Middlewares/ST/STM32_USB_Device_Library/Core/Src/usbd_core.c ****       {
 637:Middlewares/ST/STM32_USB_Device_Library/Core/Src/usbd_core.c ****         /*
 638:Middlewares/ST/STM32_USB_Device_Library/Core/Src/usbd_core.c ****           * STATUS PHASE completed, update ep0_state to idle
 639:Middlewares/ST/STM32_USB_Device_Library/Core/Src/usbd_core.c ****           */
 640:Middlewares/ST/STM32_USB_Device_Library/Core/Src/usbd_core.c ****         pdev->ep0_state = USBD_EP0_IDLE;
 641:Middlewares/ST/STM32_USB_Device_Library/Core/Src/usbd_core.c ****         (void)USBD_LL_StallEP(pdev, 0U);
 642:Middlewares/ST/STM32_USB_Device_Library/Core/Src/usbd_core.c ****       }
 643:Middlewares/ST/STM32_USB_Device_Library/Core/Src/usbd_core.c **** #endif
 644:Middlewares/ST/STM32_USB_Device_Library/Core/Src/usbd_core.c ****     }
 645:Middlewares/ST/STM32_USB_Device_Library/Core/Src/usbd_core.c ****   }
 646:Middlewares/ST/STM32_USB_Device_Library/Core/Src/usbd_core.c ****   else
 647:Middlewares/ST/STM32_USB_Device_Library/Core/Src/usbd_core.c ****   {
 648:Middlewares/ST/STM32_USB_Device_Library/Core/Src/usbd_core.c ****     /* Get the class index relative to this interface */
 649:Middlewares/ST/STM32_USB_Device_Library/Core/Src/usbd_core.c ****     idx = USBD_CoreFindEP(pdev, (epnum & 0x7FU));
 650:Middlewares/ST/STM32_USB_Device_Library/Core/Src/usbd_core.c **** 
 651:Middlewares/ST/STM32_USB_Device_Library/Core/Src/usbd_core.c ****     if (((uint16_t)idx != 0xFFU) && (idx < USBD_MAX_SUPPORTED_CLASS))
ARM GAS  /tmp/ccrU7oA5.s 			page 24


 652:Middlewares/ST/STM32_USB_Device_Library/Core/Src/usbd_core.c ****     {
 653:Middlewares/ST/STM32_USB_Device_Library/Core/Src/usbd_core.c ****       /* Call the class data out function to manage the request */
 654:Middlewares/ST/STM32_USB_Device_Library/Core/Src/usbd_core.c ****       if (pdev->dev_state == USBD_STATE_CONFIGURED)
 655:Middlewares/ST/STM32_USB_Device_Library/Core/Src/usbd_core.c ****       {
 656:Middlewares/ST/STM32_USB_Device_Library/Core/Src/usbd_core.c ****         if (pdev->pClass[idx]->DataOut != NULL)
 657:Middlewares/ST/STM32_USB_Device_Library/Core/Src/usbd_core.c ****         {
 658:Middlewares/ST/STM32_USB_Device_Library/Core/Src/usbd_core.c ****           pdev->classId = idx;
 659:Middlewares/ST/STM32_USB_Device_Library/Core/Src/usbd_core.c ****           ret = (USBD_StatusTypeDef)pdev->pClass[idx]->DataOut(pdev, epnum);
 660:Middlewares/ST/STM32_USB_Device_Library/Core/Src/usbd_core.c ****         }
 661:Middlewares/ST/STM32_USB_Device_Library/Core/Src/usbd_core.c ****       }
 662:Middlewares/ST/STM32_USB_Device_Library/Core/Src/usbd_core.c ****       if (ret != USBD_OK)
 663:Middlewares/ST/STM32_USB_Device_Library/Core/Src/usbd_core.c ****       {
 664:Middlewares/ST/STM32_USB_Device_Library/Core/Src/usbd_core.c ****         return ret;
 665:Middlewares/ST/STM32_USB_Device_Library/Core/Src/usbd_core.c ****       }
 666:Middlewares/ST/STM32_USB_Device_Library/Core/Src/usbd_core.c ****     }
 667:Middlewares/ST/STM32_USB_Device_Library/Core/Src/usbd_core.c ****   }
 668:Middlewares/ST/STM32_USB_Device_Library/Core/Src/usbd_core.c **** 
 669:Middlewares/ST/STM32_USB_Device_Library/Core/Src/usbd_core.c ****   return USBD_OK;
 670:Middlewares/ST/STM32_USB_Device_Library/Core/Src/usbd_core.c **** }
 671:Middlewares/ST/STM32_USB_Device_Library/Core/Src/usbd_core.c **** 
 672:Middlewares/ST/STM32_USB_Device_Library/Core/Src/usbd_core.c **** /**
 673:Middlewares/ST/STM32_USB_Device_Library/Core/Src/usbd_core.c ****   * @brief  USBD_LL_DataInStage
 674:Middlewares/ST/STM32_USB_Device_Library/Core/Src/usbd_core.c ****   *         Handle data in stage
 675:Middlewares/ST/STM32_USB_Device_Library/Core/Src/usbd_core.c ****   * @param  pdev: device instance
 676:Middlewares/ST/STM32_USB_Device_Library/Core/Src/usbd_core.c ****   * @param  epnum: endpoint index
 677:Middlewares/ST/STM32_USB_Device_Library/Core/Src/usbd_core.c ****   * @retval status
 678:Middlewares/ST/STM32_USB_Device_Library/Core/Src/usbd_core.c ****   */
 679:Middlewares/ST/STM32_USB_Device_Library/Core/Src/usbd_core.c **** USBD_StatusTypeDef USBD_LL_DataInStage(USBD_HandleTypeDef *pdev,
 680:Middlewares/ST/STM32_USB_Device_Library/Core/Src/usbd_core.c ****                                        uint8_t epnum, uint8_t *pdata)
 681:Middlewares/ST/STM32_USB_Device_Library/Core/Src/usbd_core.c **** {
 682:Middlewares/ST/STM32_USB_Device_Library/Core/Src/usbd_core.c ****   USBD_EndpointTypeDef *pep;
 683:Middlewares/ST/STM32_USB_Device_Library/Core/Src/usbd_core.c ****   USBD_StatusTypeDef ret;
 684:Middlewares/ST/STM32_USB_Device_Library/Core/Src/usbd_core.c ****   uint8_t idx;
 685:Middlewares/ST/STM32_USB_Device_Library/Core/Src/usbd_core.c **** 
 686:Middlewares/ST/STM32_USB_Device_Library/Core/Src/usbd_core.c ****   if (epnum == 0U)
 687:Middlewares/ST/STM32_USB_Device_Library/Core/Src/usbd_core.c ****   {
 688:Middlewares/ST/STM32_USB_Device_Library/Core/Src/usbd_core.c ****     pep = &pdev->ep_in[0];
 689:Middlewares/ST/STM32_USB_Device_Library/Core/Src/usbd_core.c **** 
 690:Middlewares/ST/STM32_USB_Device_Library/Core/Src/usbd_core.c ****     if (pdev->ep0_state == USBD_EP0_DATA_IN)
 691:Middlewares/ST/STM32_USB_Device_Library/Core/Src/usbd_core.c ****     {
 692:Middlewares/ST/STM32_USB_Device_Library/Core/Src/usbd_core.c ****       if (pep->rem_length > pep->maxpacket)
 693:Middlewares/ST/STM32_USB_Device_Library/Core/Src/usbd_core.c ****       {
 694:Middlewares/ST/STM32_USB_Device_Library/Core/Src/usbd_core.c ****         pep->rem_length -= pep->maxpacket;
 695:Middlewares/ST/STM32_USB_Device_Library/Core/Src/usbd_core.c **** 
 696:Middlewares/ST/STM32_USB_Device_Library/Core/Src/usbd_core.c ****         (void)USBD_CtlContinueSendData(pdev, pdata, pep->rem_length);
 697:Middlewares/ST/STM32_USB_Device_Library/Core/Src/usbd_core.c **** 
 698:Middlewares/ST/STM32_USB_Device_Library/Core/Src/usbd_core.c ****         /* Prepare endpoint for premature end of transfer */
 699:Middlewares/ST/STM32_USB_Device_Library/Core/Src/usbd_core.c ****         (void)USBD_LL_PrepareReceive(pdev, 0U, NULL, 0U);
 700:Middlewares/ST/STM32_USB_Device_Library/Core/Src/usbd_core.c ****       }
 701:Middlewares/ST/STM32_USB_Device_Library/Core/Src/usbd_core.c ****       else
 702:Middlewares/ST/STM32_USB_Device_Library/Core/Src/usbd_core.c ****       {
 703:Middlewares/ST/STM32_USB_Device_Library/Core/Src/usbd_core.c ****         /* last packet is MPS multiple, so send ZLP packet */
 704:Middlewares/ST/STM32_USB_Device_Library/Core/Src/usbd_core.c ****         if ((pep->maxpacket == pep->rem_length) &&
 705:Middlewares/ST/STM32_USB_Device_Library/Core/Src/usbd_core.c ****             (pep->total_length >= pep->maxpacket) &&
 706:Middlewares/ST/STM32_USB_Device_Library/Core/Src/usbd_core.c ****             (pep->total_length < pdev->ep0_data_len))
 707:Middlewares/ST/STM32_USB_Device_Library/Core/Src/usbd_core.c ****         {
 708:Middlewares/ST/STM32_USB_Device_Library/Core/Src/usbd_core.c ****           (void)USBD_CtlContinueSendData(pdev, NULL, 0U);
ARM GAS  /tmp/ccrU7oA5.s 			page 25


 709:Middlewares/ST/STM32_USB_Device_Library/Core/Src/usbd_core.c ****           pdev->ep0_data_len = 0U;
 710:Middlewares/ST/STM32_USB_Device_Library/Core/Src/usbd_core.c **** 
 711:Middlewares/ST/STM32_USB_Device_Library/Core/Src/usbd_core.c ****           /* Prepare endpoint for premature end of transfer */
 712:Middlewares/ST/STM32_USB_Device_Library/Core/Src/usbd_core.c ****           (void)USBD_LL_PrepareReceive(pdev, 0U, NULL, 0U);
 713:Middlewares/ST/STM32_USB_Device_Library/Core/Src/usbd_core.c ****         }
 714:Middlewares/ST/STM32_USB_Device_Library/Core/Src/usbd_core.c ****         else
 715:Middlewares/ST/STM32_USB_Device_Library/Core/Src/usbd_core.c ****         {
 716:Middlewares/ST/STM32_USB_Device_Library/Core/Src/usbd_core.c ****           if (pdev->dev_state == USBD_STATE_CONFIGURED)
 717:Middlewares/ST/STM32_USB_Device_Library/Core/Src/usbd_core.c ****           {
 718:Middlewares/ST/STM32_USB_Device_Library/Core/Src/usbd_core.c ****             if (pdev->pClass[0]->EP0_TxSent != NULL)
 719:Middlewares/ST/STM32_USB_Device_Library/Core/Src/usbd_core.c ****             {
 720:Middlewares/ST/STM32_USB_Device_Library/Core/Src/usbd_core.c ****               pdev->classId = 0U;
 721:Middlewares/ST/STM32_USB_Device_Library/Core/Src/usbd_core.c ****               pdev->pClass[0]->EP0_TxSent(pdev);
 722:Middlewares/ST/STM32_USB_Device_Library/Core/Src/usbd_core.c ****             }
 723:Middlewares/ST/STM32_USB_Device_Library/Core/Src/usbd_core.c ****           }
 724:Middlewares/ST/STM32_USB_Device_Library/Core/Src/usbd_core.c ****           (void)USBD_LL_StallEP(pdev, 0x80U);
 725:Middlewares/ST/STM32_USB_Device_Library/Core/Src/usbd_core.c ****           (void)USBD_CtlReceiveStatus(pdev);
 726:Middlewares/ST/STM32_USB_Device_Library/Core/Src/usbd_core.c ****         }
 727:Middlewares/ST/STM32_USB_Device_Library/Core/Src/usbd_core.c ****       }
 728:Middlewares/ST/STM32_USB_Device_Library/Core/Src/usbd_core.c ****     }
 729:Middlewares/ST/STM32_USB_Device_Library/Core/Src/usbd_core.c ****     else
 730:Middlewares/ST/STM32_USB_Device_Library/Core/Src/usbd_core.c ****     {
 731:Middlewares/ST/STM32_USB_Device_Library/Core/Src/usbd_core.c **** #if 0
 732:Middlewares/ST/STM32_USB_Device_Library/Core/Src/usbd_core.c ****       if ((pdev->ep0_state == USBD_EP0_STATUS_IN) ||
 733:Middlewares/ST/STM32_USB_Device_Library/Core/Src/usbd_core.c ****           (pdev->ep0_state == USBD_EP0_IDLE))
 734:Middlewares/ST/STM32_USB_Device_Library/Core/Src/usbd_core.c ****       {
 735:Middlewares/ST/STM32_USB_Device_Library/Core/Src/usbd_core.c ****         (void)USBD_LL_StallEP(pdev, 0x80U);
 736:Middlewares/ST/STM32_USB_Device_Library/Core/Src/usbd_core.c ****       }
 737:Middlewares/ST/STM32_USB_Device_Library/Core/Src/usbd_core.c **** #endif
 738:Middlewares/ST/STM32_USB_Device_Library/Core/Src/usbd_core.c ****     }
 739:Middlewares/ST/STM32_USB_Device_Library/Core/Src/usbd_core.c **** 
 740:Middlewares/ST/STM32_USB_Device_Library/Core/Src/usbd_core.c ****     if (pdev->dev_test_mode != 0U)
 741:Middlewares/ST/STM32_USB_Device_Library/Core/Src/usbd_core.c ****     {
 742:Middlewares/ST/STM32_USB_Device_Library/Core/Src/usbd_core.c ****       (void)USBD_RunTestMode(pdev);
 743:Middlewares/ST/STM32_USB_Device_Library/Core/Src/usbd_core.c ****       pdev->dev_test_mode = 0U;
 744:Middlewares/ST/STM32_USB_Device_Library/Core/Src/usbd_core.c ****     }
 745:Middlewares/ST/STM32_USB_Device_Library/Core/Src/usbd_core.c ****   }
 746:Middlewares/ST/STM32_USB_Device_Library/Core/Src/usbd_core.c ****   else
 747:Middlewares/ST/STM32_USB_Device_Library/Core/Src/usbd_core.c ****   {
 748:Middlewares/ST/STM32_USB_Device_Library/Core/Src/usbd_core.c ****     /* Get the class index relative to this interface */
 749:Middlewares/ST/STM32_USB_Device_Library/Core/Src/usbd_core.c ****     idx = USBD_CoreFindEP(pdev, ((uint8_t)epnum | 0x80U));
 750:Middlewares/ST/STM32_USB_Device_Library/Core/Src/usbd_core.c **** 
 751:Middlewares/ST/STM32_USB_Device_Library/Core/Src/usbd_core.c ****     if (((uint16_t)idx != 0xFFU) && (idx < USBD_MAX_SUPPORTED_CLASS))
 752:Middlewares/ST/STM32_USB_Device_Library/Core/Src/usbd_core.c ****     {
 753:Middlewares/ST/STM32_USB_Device_Library/Core/Src/usbd_core.c ****       /* Call the class data out function to manage the request */
 754:Middlewares/ST/STM32_USB_Device_Library/Core/Src/usbd_core.c ****       if (pdev->dev_state == USBD_STATE_CONFIGURED)
 755:Middlewares/ST/STM32_USB_Device_Library/Core/Src/usbd_core.c ****       {
 756:Middlewares/ST/STM32_USB_Device_Library/Core/Src/usbd_core.c ****         if (pdev->pClass[idx]->DataIn != NULL)
 757:Middlewares/ST/STM32_USB_Device_Library/Core/Src/usbd_core.c ****         {
 758:Middlewares/ST/STM32_USB_Device_Library/Core/Src/usbd_core.c ****           pdev->classId = idx;
 759:Middlewares/ST/STM32_USB_Device_Library/Core/Src/usbd_core.c ****           ret = (USBD_StatusTypeDef)pdev->pClass[idx]->DataIn(pdev, epnum);
 760:Middlewares/ST/STM32_USB_Device_Library/Core/Src/usbd_core.c **** 
 761:Middlewares/ST/STM32_USB_Device_Library/Core/Src/usbd_core.c ****           if (ret != USBD_OK)
 762:Middlewares/ST/STM32_USB_Device_Library/Core/Src/usbd_core.c ****           {
 763:Middlewares/ST/STM32_USB_Device_Library/Core/Src/usbd_core.c ****             return ret;
 764:Middlewares/ST/STM32_USB_Device_Library/Core/Src/usbd_core.c ****           }
 765:Middlewares/ST/STM32_USB_Device_Library/Core/Src/usbd_core.c ****         }
ARM GAS  /tmp/ccrU7oA5.s 			page 26


 766:Middlewares/ST/STM32_USB_Device_Library/Core/Src/usbd_core.c ****       }
 767:Middlewares/ST/STM32_USB_Device_Library/Core/Src/usbd_core.c ****     }
 768:Middlewares/ST/STM32_USB_Device_Library/Core/Src/usbd_core.c ****   }
 769:Middlewares/ST/STM32_USB_Device_Library/Core/Src/usbd_core.c **** 
 770:Middlewares/ST/STM32_USB_Device_Library/Core/Src/usbd_core.c ****   return USBD_OK;
 771:Middlewares/ST/STM32_USB_Device_Library/Core/Src/usbd_core.c **** }
 772:Middlewares/ST/STM32_USB_Device_Library/Core/Src/usbd_core.c **** 
 773:Middlewares/ST/STM32_USB_Device_Library/Core/Src/usbd_core.c **** /**
 774:Middlewares/ST/STM32_USB_Device_Library/Core/Src/usbd_core.c ****   * @brief  USBD_LL_Reset
 775:Middlewares/ST/STM32_USB_Device_Library/Core/Src/usbd_core.c ****   *         Handle Reset event
 776:Middlewares/ST/STM32_USB_Device_Library/Core/Src/usbd_core.c ****   * @param  pdev: device instance
 777:Middlewares/ST/STM32_USB_Device_Library/Core/Src/usbd_core.c ****   * @retval status
 778:Middlewares/ST/STM32_USB_Device_Library/Core/Src/usbd_core.c ****   */
 779:Middlewares/ST/STM32_USB_Device_Library/Core/Src/usbd_core.c **** 
 780:Middlewares/ST/STM32_USB_Device_Library/Core/Src/usbd_core.c **** USBD_StatusTypeDef USBD_LL_Reset(USBD_HandleTypeDef *pdev)
 781:Middlewares/ST/STM32_USB_Device_Library/Core/Src/usbd_core.c **** {
 645              		.loc 1 781 1 view -0
 646              		.cfi_startproc
 647              		@ args = 0, pretend = 0, frame = 0
 648              		@ frame_needed = 0, uses_anonymous_args = 0
 649              		.loc 1 781 1 is_stmt 0 view .LVU163
 650 0000 F8B5     		push	{r3, r4, r5, r6, r7, lr}
 651              	.LCFI9:
 652              		.cfi_def_cfa_offset 24
 653              		.cfi_offset 3, -24
 654              		.cfi_offset 4, -20
 655              		.cfi_offset 5, -16
 656              		.cfi_offset 6, -12
 657              		.cfi_offset 7, -8
 658              		.cfi_offset 14, -4
 659 0002 0400     		movs	r4, r0
 782:Middlewares/ST/STM32_USB_Device_Library/Core/Src/usbd_core.c ****   USBD_StatusTypeDef ret = USBD_OK;
 660              		.loc 1 782 3 is_stmt 1 view .LVU164
 661              	.LVL53:
 783:Middlewares/ST/STM32_USB_Device_Library/Core/Src/usbd_core.c **** 
 784:Middlewares/ST/STM32_USB_Device_Library/Core/Src/usbd_core.c ****   /* Upon Reset call user call back */
 785:Middlewares/ST/STM32_USB_Device_Library/Core/Src/usbd_core.c ****   pdev->dev_state = USBD_STATE_DEFAULT;
 662              		.loc 1 785 3 view .LVU165
 663              		.loc 1 785 19 is_stmt 0 view .LVU166
 664 0004 A723     		movs	r3, #167
 665 0006 9B00     		lsls	r3, r3, #2
 666 0008 0122     		movs	r2, #1
 667 000a C254     		strb	r2, [r0, r3]
 786:Middlewares/ST/STM32_USB_Device_Library/Core/Src/usbd_core.c ****   pdev->ep0_state = USBD_EP0_IDLE;
 668              		.loc 1 786 3 is_stmt 1 view .LVU167
 669              		.loc 1 786 19 is_stmt 0 view .LVU168
 670 000c 0023     		movs	r3, #0
 671 000e A522     		movs	r2, #165
 672 0010 9200     		lsls	r2, r2, #2
 673 0012 8350     		str	r3, [r0, r2]
 787:Middlewares/ST/STM32_USB_Device_Library/Core/Src/usbd_core.c ****   pdev->dev_config = 0U;
 674              		.loc 1 787 3 is_stmt 1 view .LVU169
 675              		.loc 1 787 20 is_stmt 0 view .LVU170
 676 0014 4360     		str	r3, [r0, #4]
 788:Middlewares/ST/STM32_USB_Device_Library/Core/Src/usbd_core.c ****   pdev->dev_remote_wakeup = 0U;
 677              		.loc 1 788 3 is_stmt 1 view .LVU171
 678              		.loc 1 788 27 is_stmt 0 view .LVU172
ARM GAS  /tmp/ccrU7oA5.s 			page 27


 679 0016 1032     		adds	r2, r2, #16
 680 0018 8350     		str	r3, [r0, r2]
 789:Middlewares/ST/STM32_USB_Device_Library/Core/Src/usbd_core.c ****   pdev->dev_test_mode = 0U;
 681              		.loc 1 789 3 is_stmt 1 view .LVU173
 682              		.loc 1 789 23 is_stmt 0 view .LVU174
 683 001a 043A     		subs	r2, r2, #4
 684 001c 8354     		strb	r3, [r0, r2]
 790:Middlewares/ST/STM32_USB_Device_Library/Core/Src/usbd_core.c **** 
 791:Middlewares/ST/STM32_USB_Device_Library/Core/Src/usbd_core.c **** #ifdef USE_USBD_COMPOSITE
 792:Middlewares/ST/STM32_USB_Device_Library/Core/Src/usbd_core.c ****   /* Parse the table of classes in use */
 793:Middlewares/ST/STM32_USB_Device_Library/Core/Src/usbd_core.c ****   for (uint32_t i = 0U; i < USBD_MAX_SUPPORTED_CLASS; i++)
 794:Middlewares/ST/STM32_USB_Device_Library/Core/Src/usbd_core.c ****   {
 795:Middlewares/ST/STM32_USB_Device_Library/Core/Src/usbd_core.c ****     /* Check if current class is in use */
 796:Middlewares/ST/STM32_USB_Device_Library/Core/Src/usbd_core.c ****     if ((pdev->tclasslist[i].Active) == 1U)
 797:Middlewares/ST/STM32_USB_Device_Library/Core/Src/usbd_core.c ****     {
 798:Middlewares/ST/STM32_USB_Device_Library/Core/Src/usbd_core.c ****       if (pdev->pClass[i] != NULL)
 799:Middlewares/ST/STM32_USB_Device_Library/Core/Src/usbd_core.c ****       {
 800:Middlewares/ST/STM32_USB_Device_Library/Core/Src/usbd_core.c ****         pdev->classId = i;
 801:Middlewares/ST/STM32_USB_Device_Library/Core/Src/usbd_core.c ****         /* Clear configuration  and De-initialize the Class process*/
 802:Middlewares/ST/STM32_USB_Device_Library/Core/Src/usbd_core.c **** 
 803:Middlewares/ST/STM32_USB_Device_Library/Core/Src/usbd_core.c ****         if (pdev->pClass[i]->DeInit != NULL)
 804:Middlewares/ST/STM32_USB_Device_Library/Core/Src/usbd_core.c ****         {
 805:Middlewares/ST/STM32_USB_Device_Library/Core/Src/usbd_core.c ****           if (pdev->pClass[i]->DeInit(pdev, (uint8_t)pdev->dev_config) != USBD_OK)
 806:Middlewares/ST/STM32_USB_Device_Library/Core/Src/usbd_core.c ****           {
 807:Middlewares/ST/STM32_USB_Device_Library/Core/Src/usbd_core.c ****             ret = USBD_FAIL;
 808:Middlewares/ST/STM32_USB_Device_Library/Core/Src/usbd_core.c ****           }
 809:Middlewares/ST/STM32_USB_Device_Library/Core/Src/usbd_core.c ****         }
 810:Middlewares/ST/STM32_USB_Device_Library/Core/Src/usbd_core.c ****       }
 811:Middlewares/ST/STM32_USB_Device_Library/Core/Src/usbd_core.c ****     }
 812:Middlewares/ST/STM32_USB_Device_Library/Core/Src/usbd_core.c ****   }
 813:Middlewares/ST/STM32_USB_Device_Library/Core/Src/usbd_core.c **** #else
 814:Middlewares/ST/STM32_USB_Device_Library/Core/Src/usbd_core.c **** 
 815:Middlewares/ST/STM32_USB_Device_Library/Core/Src/usbd_core.c ****   if (pdev->pClass[0] != NULL)
 685              		.loc 1 815 3 is_stmt 1 view .LVU175
 686              		.loc 1 815 19 is_stmt 0 view .LVU176
 687 001e AE23     		movs	r3, #174
 688 0020 9B00     		lsls	r3, r3, #2
 689 0022 C358     		ldr	r3, [r0, r3]
 690              		.loc 1 815 6 view .LVU177
 691 0024 002B     		cmp	r3, #0
 692 0026 1ED0     		beq	.L37
 816:Middlewares/ST/STM32_USB_Device_Library/Core/Src/usbd_core.c ****   {
 817:Middlewares/ST/STM32_USB_Device_Library/Core/Src/usbd_core.c ****     if (pdev->pClass[0]->DeInit != NULL)
 693              		.loc 1 817 5 is_stmt 1 view .LVU178
 694              		.loc 1 817 24 is_stmt 0 view .LVU179
 695 0028 5B68     		ldr	r3, [r3, #4]
 696              		.loc 1 817 8 view .LVU180
 697 002a 002B     		cmp	r3, #0
 698 002c 1DD0     		beq	.L38
 818:Middlewares/ST/STM32_USB_Device_Library/Core/Src/usbd_core.c ****     {
 819:Middlewares/ST/STM32_USB_Device_Library/Core/Src/usbd_core.c ****       if (pdev->pClass[0]->DeInit(pdev, (uint8_t)pdev->dev_config) != USBD_OK)
 699              		.loc 1 819 7 is_stmt 1 view .LVU181
 700              		.loc 1 819 11 is_stmt 0 view .LVU182
 701 002e 0021     		movs	r1, #0
 702 0030 9847     		blx	r3
 703              	.LVL54:
 704              		.loc 1 819 11 view .LVU183
ARM GAS  /tmp/ccrU7oA5.s 			page 28


 705 0032 051E     		subs	r5, r0, #0
 706              		.loc 1 819 10 discriminator 1 view .LVU184
 707 0034 1BD1     		bne	.L40
 708              	.L36:
 709              	.LVL55:
 820:Middlewares/ST/STM32_USB_Device_Library/Core/Src/usbd_core.c ****       {
 821:Middlewares/ST/STM32_USB_Device_Library/Core/Src/usbd_core.c ****         ret = USBD_FAIL;
 822:Middlewares/ST/STM32_USB_Device_Library/Core/Src/usbd_core.c ****       }
 823:Middlewares/ST/STM32_USB_Device_Library/Core/Src/usbd_core.c ****     }
 824:Middlewares/ST/STM32_USB_Device_Library/Core/Src/usbd_core.c ****   }
 825:Middlewares/ST/STM32_USB_Device_Library/Core/Src/usbd_core.c **** #endif /* USE_USBD_COMPOSITE */
 826:Middlewares/ST/STM32_USB_Device_Library/Core/Src/usbd_core.c **** 
 827:Middlewares/ST/STM32_USB_Device_Library/Core/Src/usbd_core.c ****   /* Open EP0 OUT */
 828:Middlewares/ST/STM32_USB_Device_Library/Core/Src/usbd_core.c ****   (void)USBD_LL_OpenEP(pdev, 0x00U, USBD_EP_TYPE_CTRL, USB_MAX_EP0_SIZE);
 710              		.loc 1 828 3 is_stmt 1 view .LVU185
 711              		.loc 1 828 9 is_stmt 0 view .LVU186
 712 0036 4023     		movs	r3, #64
 713 0038 0022     		movs	r2, #0
 714 003a 0021     		movs	r1, #0
 715 003c 2000     		movs	r0, r4
 716 003e FFF7FEFF 		bl	USBD_LL_OpenEP
 717              	.LVL56:
 829:Middlewares/ST/STM32_USB_Device_Library/Core/Src/usbd_core.c ****   pdev->ep_out[0x00U & 0xFU].is_used = 1U;
 718              		.loc 1 829 3 is_stmt 1 view .LVU187
 719              		.loc 1 829 38 is_stmt 0 view .LVU188
 720 0042 0127     		movs	r7, #1
 721 0044 B223     		movs	r3, #178
 722 0046 5B00     		lsls	r3, r3, #1
 723 0048 E752     		strh	r7, [r4, r3]
 830:Middlewares/ST/STM32_USB_Device_Library/Core/Src/usbd_core.c **** 
 831:Middlewares/ST/STM32_USB_Device_Library/Core/Src/usbd_core.c ****   pdev->ep_out[0].maxpacket = USB_MAX_EP0_SIZE;
 724              		.loc 1 831 3 is_stmt 1 view .LVU189
 725              		.loc 1 831 29 is_stmt 0 view .LVU190
 726 004a 4026     		movs	r6, #64
 727 004c 043B     		subs	r3, r3, #4
 728 004e E650     		str	r6, [r4, r3]
 832:Middlewares/ST/STM32_USB_Device_Library/Core/Src/usbd_core.c **** 
 833:Middlewares/ST/STM32_USB_Device_Library/Core/Src/usbd_core.c ****   /* Open EP0 IN */
 834:Middlewares/ST/STM32_USB_Device_Library/Core/Src/usbd_core.c ****   (void)USBD_LL_OpenEP(pdev, 0x80U, USBD_EP_TYPE_CTRL, USB_MAX_EP0_SIZE);
 729              		.loc 1 834 3 is_stmt 1 view .LVU191
 730              		.loc 1 834 9 is_stmt 0 view .LVU192
 731 0050 213B     		subs	r3, r3, #33
 732 0052 FF3B     		subs	r3, r3, #255
 733 0054 0022     		movs	r2, #0
 734 0056 8021     		movs	r1, #128
 735 0058 2000     		movs	r0, r4
 736 005a FFF7FEFF 		bl	USBD_LL_OpenEP
 737              	.LVL57:
 835:Middlewares/ST/STM32_USB_Device_Library/Core/Src/usbd_core.c ****   pdev->ep_in[0x80U & 0xFU].is_used = 1U;
 738              		.loc 1 835 3 is_stmt 1 view .LVU193
 739              		.loc 1 835 37 is_stmt 0 view .LVU194
 740 005e A784     		strh	r7, [r4, #36]
 836:Middlewares/ST/STM32_USB_Device_Library/Core/Src/usbd_core.c **** 
 837:Middlewares/ST/STM32_USB_Device_Library/Core/Src/usbd_core.c ****   pdev->ep_in[0].maxpacket = USB_MAX_EP0_SIZE;
 741              		.loc 1 837 3 is_stmt 1 view .LVU195
 742              		.loc 1 837 28 is_stmt 0 view .LVU196
 743 0060 2662     		str	r6, [r4, #32]
ARM GAS  /tmp/ccrU7oA5.s 			page 29


 838:Middlewares/ST/STM32_USB_Device_Library/Core/Src/usbd_core.c **** 
 839:Middlewares/ST/STM32_USB_Device_Library/Core/Src/usbd_core.c ****   return ret;
 744              		.loc 1 839 3 is_stmt 1 view .LVU197
 840:Middlewares/ST/STM32_USB_Device_Library/Core/Src/usbd_core.c **** }
 745              		.loc 1 840 1 is_stmt 0 view .LVU198
 746 0062 2800     		movs	r0, r5
 747              		@ sp needed
 748              	.LVL58:
 749              	.LVL59:
 750              		.loc 1 840 1 view .LVU199
 751 0064 F8BD     		pop	{r3, r4, r5, r6, r7, pc}
 752              	.LVL60:
 753              	.L37:
 782:Middlewares/ST/STM32_USB_Device_Library/Core/Src/usbd_core.c **** 
 754              		.loc 1 782 22 view .LVU200
 755 0066 0025     		movs	r5, #0
 756 0068 E5E7     		b	.L36
 757              	.L38:
 758 006a 0025     		movs	r5, #0
 759 006c E3E7     		b	.L36
 760              	.LVL61:
 761              	.L40:
 821:Middlewares/ST/STM32_USB_Device_Library/Core/Src/usbd_core.c ****       }
 762              		.loc 1 821 13 view .LVU201
 763 006e 0325     		movs	r5, #3
 764 0070 E1E7     		b	.L36
 765              		.cfi_endproc
 766              	.LFE511:
 768              		.section	.text.USBD_LL_SetSpeed,"ax",%progbits
 769              		.align	1
 770              		.global	USBD_LL_SetSpeed
 771              		.syntax unified
 772              		.code	16
 773              		.thumb_func
 775              	USBD_LL_SetSpeed:
 776              	.LVL62:
 777              	.LFB512:
 841:Middlewares/ST/STM32_USB_Device_Library/Core/Src/usbd_core.c **** 
 842:Middlewares/ST/STM32_USB_Device_Library/Core/Src/usbd_core.c **** /**
 843:Middlewares/ST/STM32_USB_Device_Library/Core/Src/usbd_core.c ****   * @brief  USBD_LL_SetSpeed
 844:Middlewares/ST/STM32_USB_Device_Library/Core/Src/usbd_core.c ****   *         Handle Reset event
 845:Middlewares/ST/STM32_USB_Device_Library/Core/Src/usbd_core.c ****   * @param  pdev: device instance
 846:Middlewares/ST/STM32_USB_Device_Library/Core/Src/usbd_core.c ****   * @retval status
 847:Middlewares/ST/STM32_USB_Device_Library/Core/Src/usbd_core.c ****   */
 848:Middlewares/ST/STM32_USB_Device_Library/Core/Src/usbd_core.c **** USBD_StatusTypeDef USBD_LL_SetSpeed(USBD_HandleTypeDef *pdev,
 849:Middlewares/ST/STM32_USB_Device_Library/Core/Src/usbd_core.c ****                                     USBD_SpeedTypeDef speed)
 850:Middlewares/ST/STM32_USB_Device_Library/Core/Src/usbd_core.c **** {
 778              		.loc 1 850 1 is_stmt 1 view -0
 779              		.cfi_startproc
 780              		@ args = 0, pretend = 0, frame = 0
 781              		@ frame_needed = 0, uses_anonymous_args = 0
 782              		@ link register save eliminated.
 851:Middlewares/ST/STM32_USB_Device_Library/Core/Src/usbd_core.c ****   pdev->dev_speed = speed;
 783              		.loc 1 851 3 view .LVU203
 784              		.loc 1 851 19 is_stmt 0 view .LVU204
 785 0000 0174     		strb	r1, [r0, #16]
 852:Middlewares/ST/STM32_USB_Device_Library/Core/Src/usbd_core.c **** 
ARM GAS  /tmp/ccrU7oA5.s 			page 30


 853:Middlewares/ST/STM32_USB_Device_Library/Core/Src/usbd_core.c ****   return USBD_OK;
 786              		.loc 1 853 3 is_stmt 1 view .LVU205
 854:Middlewares/ST/STM32_USB_Device_Library/Core/Src/usbd_core.c **** }
 787              		.loc 1 854 1 is_stmt 0 view .LVU206
 788 0002 0020     		movs	r0, #0
 789              	.LVL63:
 790              		.loc 1 854 1 view .LVU207
 791              		@ sp needed
 792 0004 7047     		bx	lr
 793              		.cfi_endproc
 794              	.LFE512:
 796              		.section	.text.USBD_LL_Suspend,"ax",%progbits
 797              		.align	1
 798              		.global	USBD_LL_Suspend
 799              		.syntax unified
 800              		.code	16
 801              		.thumb_func
 803              	USBD_LL_Suspend:
 804              	.LVL64:
 805              	.LFB513:
 855:Middlewares/ST/STM32_USB_Device_Library/Core/Src/usbd_core.c **** 
 856:Middlewares/ST/STM32_USB_Device_Library/Core/Src/usbd_core.c **** /**
 857:Middlewares/ST/STM32_USB_Device_Library/Core/Src/usbd_core.c ****   * @brief  USBD_LL_Suspend
 858:Middlewares/ST/STM32_USB_Device_Library/Core/Src/usbd_core.c ****   *         Handle Suspend event
 859:Middlewares/ST/STM32_USB_Device_Library/Core/Src/usbd_core.c ****   * @param  pdev: device instance
 860:Middlewares/ST/STM32_USB_Device_Library/Core/Src/usbd_core.c ****   * @retval status
 861:Middlewares/ST/STM32_USB_Device_Library/Core/Src/usbd_core.c ****   */
 862:Middlewares/ST/STM32_USB_Device_Library/Core/Src/usbd_core.c **** 
 863:Middlewares/ST/STM32_USB_Device_Library/Core/Src/usbd_core.c **** USBD_StatusTypeDef USBD_LL_Suspend(USBD_HandleTypeDef *pdev)
 864:Middlewares/ST/STM32_USB_Device_Library/Core/Src/usbd_core.c **** {
 806              		.loc 1 864 1 is_stmt 1 view -0
 807              		.cfi_startproc
 808              		@ args = 0, pretend = 0, frame = 0
 809              		@ frame_needed = 0, uses_anonymous_args = 0
 810              		@ link register save eliminated.
 865:Middlewares/ST/STM32_USB_Device_Library/Core/Src/usbd_core.c ****   pdev->dev_old_state = pdev->dev_state;
 811              		.loc 1 865 3 view .LVU209
 812              		.loc 1 865 29 is_stmt 0 view .LVU210
 813 0000 A722     		movs	r2, #167
 814 0002 9200     		lsls	r2, r2, #2
 815 0004 835C     		ldrb	r3, [r0, r2]
 816 0006 DBB2     		uxtb	r3, r3
 817              		.loc 1 865 23 view .LVU211
 818 0008 0249     		ldr	r1, .L43
 819 000a 4354     		strb	r3, [r0, r1]
 866:Middlewares/ST/STM32_USB_Device_Library/Core/Src/usbd_core.c ****   pdev->dev_state = USBD_STATE_SUSPENDED;
 820              		.loc 1 866 3 is_stmt 1 view .LVU212
 821              		.loc 1 866 19 is_stmt 0 view .LVU213
 822 000c 0423     		movs	r3, #4
 823 000e 8354     		strb	r3, [r0, r2]
 867:Middlewares/ST/STM32_USB_Device_Library/Core/Src/usbd_core.c **** 
 868:Middlewares/ST/STM32_USB_Device_Library/Core/Src/usbd_core.c ****   return USBD_OK;
 824              		.loc 1 868 3 is_stmt 1 view .LVU214
 869:Middlewares/ST/STM32_USB_Device_Library/Core/Src/usbd_core.c **** }
 825              		.loc 1 869 1 is_stmt 0 view .LVU215
 826 0010 0020     		movs	r0, #0
 827              	.LVL65:
ARM GAS  /tmp/ccrU7oA5.s 			page 31


 828              		.loc 1 869 1 view .LVU216
 829              		@ sp needed
 830 0012 7047     		bx	lr
 831              	.L44:
 832              		.align	2
 833              	.L43:
 834 0014 9D020000 		.word	669
 835              		.cfi_endproc
 836              	.LFE513:
 838              		.section	.text.USBD_LL_Resume,"ax",%progbits
 839              		.align	1
 840              		.global	USBD_LL_Resume
 841              		.syntax unified
 842              		.code	16
 843              		.thumb_func
 845              	USBD_LL_Resume:
 846              	.LVL66:
 847              	.LFB514:
 870:Middlewares/ST/STM32_USB_Device_Library/Core/Src/usbd_core.c **** 
 871:Middlewares/ST/STM32_USB_Device_Library/Core/Src/usbd_core.c **** /**
 872:Middlewares/ST/STM32_USB_Device_Library/Core/Src/usbd_core.c ****   * @brief  USBD_LL_Resume
 873:Middlewares/ST/STM32_USB_Device_Library/Core/Src/usbd_core.c ****   *         Handle Resume event
 874:Middlewares/ST/STM32_USB_Device_Library/Core/Src/usbd_core.c ****   * @param  pdev: device instance
 875:Middlewares/ST/STM32_USB_Device_Library/Core/Src/usbd_core.c ****   * @retval status
 876:Middlewares/ST/STM32_USB_Device_Library/Core/Src/usbd_core.c ****   */
 877:Middlewares/ST/STM32_USB_Device_Library/Core/Src/usbd_core.c **** 
 878:Middlewares/ST/STM32_USB_Device_Library/Core/Src/usbd_core.c **** USBD_StatusTypeDef USBD_LL_Resume(USBD_HandleTypeDef *pdev)
 879:Middlewares/ST/STM32_USB_Device_Library/Core/Src/usbd_core.c **** {
 848              		.loc 1 879 1 is_stmt 1 view -0
 849              		.cfi_startproc
 850              		@ args = 0, pretend = 0, frame = 0
 851              		@ frame_needed = 0, uses_anonymous_args = 0
 852              		@ link register save eliminated.
 880:Middlewares/ST/STM32_USB_Device_Library/Core/Src/usbd_core.c ****   if (pdev->dev_state == USBD_STATE_SUSPENDED)
 853              		.loc 1 880 3 view .LVU218
 854              		.loc 1 880 11 is_stmt 0 view .LVU219
 855 0000 A723     		movs	r3, #167
 856 0002 9B00     		lsls	r3, r3, #2
 857 0004 C35C     		ldrb	r3, [r0, r3]
 858              		.loc 1 880 6 view .LVU220
 859 0006 042B     		cmp	r3, #4
 860 0008 01D0     		beq	.L47
 861              	.L46:
 881:Middlewares/ST/STM32_USB_Device_Library/Core/Src/usbd_core.c ****   {
 882:Middlewares/ST/STM32_USB_Device_Library/Core/Src/usbd_core.c ****     pdev->dev_state = pdev->dev_old_state;
 883:Middlewares/ST/STM32_USB_Device_Library/Core/Src/usbd_core.c ****   }
 884:Middlewares/ST/STM32_USB_Device_Library/Core/Src/usbd_core.c **** 
 885:Middlewares/ST/STM32_USB_Device_Library/Core/Src/usbd_core.c ****   return USBD_OK;
 862              		.loc 1 885 3 is_stmt 1 view .LVU221
 886:Middlewares/ST/STM32_USB_Device_Library/Core/Src/usbd_core.c **** }
 863              		.loc 1 886 1 is_stmt 0 view .LVU222
 864 000a 0020     		movs	r0, #0
 865              	.LVL67:
 866              		.loc 1 886 1 view .LVU223
 867              		@ sp needed
 868 000c 7047     		bx	lr
 869              	.LVL68:
ARM GAS  /tmp/ccrU7oA5.s 			page 32


 870              	.L47:
 882:Middlewares/ST/STM32_USB_Device_Library/Core/Src/usbd_core.c ****   }
 871              		.loc 1 882 5 is_stmt 1 view .LVU224
 882:Middlewares/ST/STM32_USB_Device_Library/Core/Src/usbd_core.c ****   }
 872              		.loc 1 882 27 is_stmt 0 view .LVU225
 873 000e 034B     		ldr	r3, .L48
 874 0010 C35C     		ldrb	r3, [r0, r3]
 875 0012 DBB2     		uxtb	r3, r3
 882:Middlewares/ST/STM32_USB_Device_Library/Core/Src/usbd_core.c ****   }
 876              		.loc 1 882 21 view .LVU226
 877 0014 A722     		movs	r2, #167
 878 0016 9200     		lsls	r2, r2, #2
 879 0018 8354     		strb	r3, [r0, r2]
 880 001a F6E7     		b	.L46
 881              	.L49:
 882              		.align	2
 883              	.L48:
 884 001c 9D020000 		.word	669
 885              		.cfi_endproc
 886              	.LFE514:
 888              		.section	.text.USBD_LL_SOF,"ax",%progbits
 889              		.align	1
 890              		.global	USBD_LL_SOF
 891              		.syntax unified
 892              		.code	16
 893              		.thumb_func
 895              	USBD_LL_SOF:
 896              	.LVL69:
 897              	.LFB515:
 887:Middlewares/ST/STM32_USB_Device_Library/Core/Src/usbd_core.c **** 
 888:Middlewares/ST/STM32_USB_Device_Library/Core/Src/usbd_core.c **** /**
 889:Middlewares/ST/STM32_USB_Device_Library/Core/Src/usbd_core.c ****   * @brief  USBD_LL_SOF
 890:Middlewares/ST/STM32_USB_Device_Library/Core/Src/usbd_core.c ****   *         Handle SOF event
 891:Middlewares/ST/STM32_USB_Device_Library/Core/Src/usbd_core.c ****   * @param  pdev: device instance
 892:Middlewares/ST/STM32_USB_Device_Library/Core/Src/usbd_core.c ****   * @retval status
 893:Middlewares/ST/STM32_USB_Device_Library/Core/Src/usbd_core.c ****   */
 894:Middlewares/ST/STM32_USB_Device_Library/Core/Src/usbd_core.c **** 
 895:Middlewares/ST/STM32_USB_Device_Library/Core/Src/usbd_core.c **** USBD_StatusTypeDef USBD_LL_SOF(USBD_HandleTypeDef *pdev)
 896:Middlewares/ST/STM32_USB_Device_Library/Core/Src/usbd_core.c **** {
 898              		.loc 1 896 1 is_stmt 1 view -0
 899              		.cfi_startproc
 900              		@ args = 0, pretend = 0, frame = 0
 901              		@ frame_needed = 0, uses_anonymous_args = 0
 902              		.loc 1 896 1 is_stmt 0 view .LVU228
 903 0000 10B5     		push	{r4, lr}
 904              	.LCFI10:
 905              		.cfi_def_cfa_offset 8
 906              		.cfi_offset 4, -8
 907              		.cfi_offset 14, -4
 897:Middlewares/ST/STM32_USB_Device_Library/Core/Src/usbd_core.c ****   /* The SOF event can be distributed for all classes that support it */
 898:Middlewares/ST/STM32_USB_Device_Library/Core/Src/usbd_core.c ****   if (pdev->dev_state == USBD_STATE_CONFIGURED)
 908              		.loc 1 898 3 is_stmt 1 view .LVU229
 909              		.loc 1 898 11 is_stmt 0 view .LVU230
 910 0002 A723     		movs	r3, #167
 911 0004 9B00     		lsls	r3, r3, #2
 912 0006 C35C     		ldrb	r3, [r0, r3]
 913              		.loc 1 898 6 view .LVU231
ARM GAS  /tmp/ccrU7oA5.s 			page 33


 914 0008 032B     		cmp	r3, #3
 915 000a 01D0     		beq	.L52
 916              	.LVL70:
 917              	.L51:
 899:Middlewares/ST/STM32_USB_Device_Library/Core/Src/usbd_core.c ****   {
 900:Middlewares/ST/STM32_USB_Device_Library/Core/Src/usbd_core.c **** #ifdef USE_USBD_COMPOSITE
 901:Middlewares/ST/STM32_USB_Device_Library/Core/Src/usbd_core.c ****     /* Parse the table of classes in use */
 902:Middlewares/ST/STM32_USB_Device_Library/Core/Src/usbd_core.c ****     for (uint32_t i = 0; i < USBD_MAX_SUPPORTED_CLASS; i++)
 903:Middlewares/ST/STM32_USB_Device_Library/Core/Src/usbd_core.c ****     {
 904:Middlewares/ST/STM32_USB_Device_Library/Core/Src/usbd_core.c ****       /* Check if current class is in use */
 905:Middlewares/ST/STM32_USB_Device_Library/Core/Src/usbd_core.c ****       if ((pdev->tclasslist[i].Active) == 1U)
 906:Middlewares/ST/STM32_USB_Device_Library/Core/Src/usbd_core.c ****       {
 907:Middlewares/ST/STM32_USB_Device_Library/Core/Src/usbd_core.c ****         if (pdev->pClass[i] != NULL)
 908:Middlewares/ST/STM32_USB_Device_Library/Core/Src/usbd_core.c ****         {
 909:Middlewares/ST/STM32_USB_Device_Library/Core/Src/usbd_core.c ****           if (pdev->pClass[i]->SOF != NULL)
 910:Middlewares/ST/STM32_USB_Device_Library/Core/Src/usbd_core.c ****           {
 911:Middlewares/ST/STM32_USB_Device_Library/Core/Src/usbd_core.c ****             pdev->classId = i;
 912:Middlewares/ST/STM32_USB_Device_Library/Core/Src/usbd_core.c ****             (void)pdev->pClass[i]->SOF(pdev);
 913:Middlewares/ST/STM32_USB_Device_Library/Core/Src/usbd_core.c ****           }
 914:Middlewares/ST/STM32_USB_Device_Library/Core/Src/usbd_core.c ****         }
 915:Middlewares/ST/STM32_USB_Device_Library/Core/Src/usbd_core.c ****       }
 916:Middlewares/ST/STM32_USB_Device_Library/Core/Src/usbd_core.c ****     }
 917:Middlewares/ST/STM32_USB_Device_Library/Core/Src/usbd_core.c **** #else
 918:Middlewares/ST/STM32_USB_Device_Library/Core/Src/usbd_core.c ****     if (pdev->pClass[0] != NULL)
 919:Middlewares/ST/STM32_USB_Device_Library/Core/Src/usbd_core.c ****     {
 920:Middlewares/ST/STM32_USB_Device_Library/Core/Src/usbd_core.c ****       if (pdev->pClass[0]->SOF != NULL)
 921:Middlewares/ST/STM32_USB_Device_Library/Core/Src/usbd_core.c ****       {
 922:Middlewares/ST/STM32_USB_Device_Library/Core/Src/usbd_core.c ****         (void)pdev->pClass[0]->SOF(pdev);
 923:Middlewares/ST/STM32_USB_Device_Library/Core/Src/usbd_core.c ****       }
 924:Middlewares/ST/STM32_USB_Device_Library/Core/Src/usbd_core.c ****     }
 925:Middlewares/ST/STM32_USB_Device_Library/Core/Src/usbd_core.c **** #endif /* USE_USBD_COMPOSITE */
 926:Middlewares/ST/STM32_USB_Device_Library/Core/Src/usbd_core.c ****   }
 927:Middlewares/ST/STM32_USB_Device_Library/Core/Src/usbd_core.c **** 
 928:Middlewares/ST/STM32_USB_Device_Library/Core/Src/usbd_core.c ****   return USBD_OK;
 918              		.loc 1 928 3 is_stmt 1 view .LVU232
 929:Middlewares/ST/STM32_USB_Device_Library/Core/Src/usbd_core.c **** }
 919              		.loc 1 929 1 is_stmt 0 view .LVU233
 920 000c 0020     		movs	r0, #0
 921              		@ sp needed
 922 000e 10BD     		pop	{r4, pc}
 923              	.LVL71:
 924              	.L52:
 918:Middlewares/ST/STM32_USB_Device_Library/Core/Src/usbd_core.c ****     {
 925              		.loc 1 918 5 is_stmt 1 view .LVU234
 918:Middlewares/ST/STM32_USB_Device_Library/Core/Src/usbd_core.c ****     {
 926              		.loc 1 918 21 is_stmt 0 view .LVU235
 927 0010 AE23     		movs	r3, #174
 928 0012 9B00     		lsls	r3, r3, #2
 929 0014 C358     		ldr	r3, [r0, r3]
 918:Middlewares/ST/STM32_USB_Device_Library/Core/Src/usbd_core.c ****     {
 930              		.loc 1 918 8 view .LVU236
 931 0016 002B     		cmp	r3, #0
 932 0018 F8D0     		beq	.L51
 920:Middlewares/ST/STM32_USB_Device_Library/Core/Src/usbd_core.c ****       {
 933              		.loc 1 920 7 is_stmt 1 view .LVU237
 920:Middlewares/ST/STM32_USB_Device_Library/Core/Src/usbd_core.c ****       {
 934              		.loc 1 920 26 is_stmt 0 view .LVU238
ARM GAS  /tmp/ccrU7oA5.s 			page 34


 935 001a DB69     		ldr	r3, [r3, #28]
 920:Middlewares/ST/STM32_USB_Device_Library/Core/Src/usbd_core.c ****       {
 936              		.loc 1 920 10 view .LVU239
 937 001c 002B     		cmp	r3, #0
 938 001e F5D0     		beq	.L51
 922:Middlewares/ST/STM32_USB_Device_Library/Core/Src/usbd_core.c ****       }
 939              		.loc 1 922 9 is_stmt 1 view .LVU240
 922:Middlewares/ST/STM32_USB_Device_Library/Core/Src/usbd_core.c ****       }
 940              		.loc 1 922 15 is_stmt 0 view .LVU241
 941 0020 9847     		blx	r3
 942              	.LVL72:
 922:Middlewares/ST/STM32_USB_Device_Library/Core/Src/usbd_core.c ****       }
 943              		.loc 1 922 15 view .LVU242
 944 0022 F3E7     		b	.L51
 945              		.cfi_endproc
 946              	.LFE515:
 948              		.section	.text.USBD_LL_IsoINIncomplete,"ax",%progbits
 949              		.align	1
 950              		.global	USBD_LL_IsoINIncomplete
 951              		.syntax unified
 952              		.code	16
 953              		.thumb_func
 955              	USBD_LL_IsoINIncomplete:
 956              	.LVL73:
 957              	.LFB516:
 930:Middlewares/ST/STM32_USB_Device_Library/Core/Src/usbd_core.c **** 
 931:Middlewares/ST/STM32_USB_Device_Library/Core/Src/usbd_core.c **** /**
 932:Middlewares/ST/STM32_USB_Device_Library/Core/Src/usbd_core.c ****   * @brief  USBD_LL_IsoINIncomplete
 933:Middlewares/ST/STM32_USB_Device_Library/Core/Src/usbd_core.c ****   *         Handle iso in incomplete event
 934:Middlewares/ST/STM32_USB_Device_Library/Core/Src/usbd_core.c ****   * @param  pdev: device instance
 935:Middlewares/ST/STM32_USB_Device_Library/Core/Src/usbd_core.c ****   * @retval status
 936:Middlewares/ST/STM32_USB_Device_Library/Core/Src/usbd_core.c ****   */
 937:Middlewares/ST/STM32_USB_Device_Library/Core/Src/usbd_core.c **** USBD_StatusTypeDef USBD_LL_IsoINIncomplete(USBD_HandleTypeDef *pdev,
 938:Middlewares/ST/STM32_USB_Device_Library/Core/Src/usbd_core.c ****                                            uint8_t epnum)
 939:Middlewares/ST/STM32_USB_Device_Library/Core/Src/usbd_core.c **** {
 958              		.loc 1 939 1 is_stmt 1 view -0
 959              		.cfi_startproc
 960              		@ args = 0, pretend = 0, frame = 0
 961              		@ frame_needed = 0, uses_anonymous_args = 0
 962              		.loc 1 939 1 is_stmt 0 view .LVU244
 963 0000 10B5     		push	{r4, lr}
 964              	.LCFI11:
 965              		.cfi_def_cfa_offset 8
 966              		.cfi_offset 4, -8
 967              		.cfi_offset 14, -4
 940:Middlewares/ST/STM32_USB_Device_Library/Core/Src/usbd_core.c ****   if (pdev->pClass[pdev->classId] == NULL)
 968              		.loc 1 940 3 is_stmt 1 view .LVU245
 969              		.loc 1 940 24 is_stmt 0 view .LVU246
 970 0002 B523     		movs	r3, #181
 971 0004 9B00     		lsls	r3, r3, #2
 972 0006 C358     		ldr	r3, [r0, r3]
 973              		.loc 1 940 19 view .LVU247
 974 0008 AE33     		adds	r3, r3, #174
 975 000a 9B00     		lsls	r3, r3, #2
 976 000c 1B58     		ldr	r3, [r3, r0]
 977              		.loc 1 940 6 view .LVU248
 978 000e 002B     		cmp	r3, #0
ARM GAS  /tmp/ccrU7oA5.s 			page 35


 979 0010 0CD0     		beq	.L55
 941:Middlewares/ST/STM32_USB_Device_Library/Core/Src/usbd_core.c ****   {
 942:Middlewares/ST/STM32_USB_Device_Library/Core/Src/usbd_core.c ****     return USBD_FAIL;
 943:Middlewares/ST/STM32_USB_Device_Library/Core/Src/usbd_core.c ****   }
 944:Middlewares/ST/STM32_USB_Device_Library/Core/Src/usbd_core.c **** 
 945:Middlewares/ST/STM32_USB_Device_Library/Core/Src/usbd_core.c ****   if (pdev->dev_state == USBD_STATE_CONFIGURED)
 980              		.loc 1 945 3 is_stmt 1 view .LVU249
 981              		.loc 1 945 11 is_stmt 0 view .LVU250
 982 0012 A722     		movs	r2, #167
 983 0014 9200     		lsls	r2, r2, #2
 984 0016 825C     		ldrb	r2, [r0, r2]
 985              		.loc 1 945 6 view .LVU251
 986 0018 032A     		cmp	r2, #3
 987 001a 01D0     		beq	.L58
 946:Middlewares/ST/STM32_USB_Device_Library/Core/Src/usbd_core.c ****   {
 947:Middlewares/ST/STM32_USB_Device_Library/Core/Src/usbd_core.c ****     if (pdev->pClass[pdev->classId]->IsoINIncomplete != NULL)
 948:Middlewares/ST/STM32_USB_Device_Library/Core/Src/usbd_core.c ****     {
 949:Middlewares/ST/STM32_USB_Device_Library/Core/Src/usbd_core.c ****       (void)pdev->pClass[pdev->classId]->IsoINIncomplete(pdev, epnum);
 950:Middlewares/ST/STM32_USB_Device_Library/Core/Src/usbd_core.c ****     }
 951:Middlewares/ST/STM32_USB_Device_Library/Core/Src/usbd_core.c ****   }
 952:Middlewares/ST/STM32_USB_Device_Library/Core/Src/usbd_core.c **** 
 953:Middlewares/ST/STM32_USB_Device_Library/Core/Src/usbd_core.c ****   return USBD_OK;
 988              		.loc 1 953 10 view .LVU252
 989 001c 0020     		movs	r0, #0
 990              	.LVL74:
 991              	.L54:
 954:Middlewares/ST/STM32_USB_Device_Library/Core/Src/usbd_core.c **** }
 992              		.loc 1 954 1 view .LVU253
 993              		@ sp needed
 994 001e 10BD     		pop	{r4, pc}
 995              	.LVL75:
 996              	.L58:
 947:Middlewares/ST/STM32_USB_Device_Library/Core/Src/usbd_core.c ****     {
 997              		.loc 1 947 5 is_stmt 1 view .LVU254
 947:Middlewares/ST/STM32_USB_Device_Library/Core/Src/usbd_core.c ****     {
 998              		.loc 1 947 36 is_stmt 0 view .LVU255
 999 0020 1B6A     		ldr	r3, [r3, #32]
 947:Middlewares/ST/STM32_USB_Device_Library/Core/Src/usbd_core.c ****     {
 1000              		.loc 1 947 8 view .LVU256
 1001 0022 002B     		cmp	r3, #0
 1002 0024 04D0     		beq	.L57
 949:Middlewares/ST/STM32_USB_Device_Library/Core/Src/usbd_core.c ****     }
 1003              		.loc 1 949 7 is_stmt 1 view .LVU257
 949:Middlewares/ST/STM32_USB_Device_Library/Core/Src/usbd_core.c ****     }
 1004              		.loc 1 949 13 is_stmt 0 view .LVU258
 1005 0026 9847     		blx	r3
 1006              	.LVL76:
 953:Middlewares/ST/STM32_USB_Device_Library/Core/Src/usbd_core.c **** }
 1007              		.loc 1 953 10 view .LVU259
 1008 0028 0020     		movs	r0, #0
 1009 002a F8E7     		b	.L54
 1010              	.LVL77:
 1011              	.L55:
 942:Middlewares/ST/STM32_USB_Device_Library/Core/Src/usbd_core.c ****   }
 1012              		.loc 1 942 12 view .LVU260
 1013 002c 0320     		movs	r0, #3
 1014              	.LVL78:
ARM GAS  /tmp/ccrU7oA5.s 			page 36


 942:Middlewares/ST/STM32_USB_Device_Library/Core/Src/usbd_core.c ****   }
 1015              		.loc 1 942 12 view .LVU261
 1016 002e F6E7     		b	.L54
 1017              	.LVL79:
 1018              	.L57:
 953:Middlewares/ST/STM32_USB_Device_Library/Core/Src/usbd_core.c **** }
 1019              		.loc 1 953 10 view .LVU262
 1020 0030 0020     		movs	r0, #0
 1021              	.LVL80:
 953:Middlewares/ST/STM32_USB_Device_Library/Core/Src/usbd_core.c **** }
 1022              		.loc 1 953 10 view .LVU263
 1023 0032 F4E7     		b	.L54
 1024              		.cfi_endproc
 1025              	.LFE516:
 1027              		.section	.text.USBD_LL_IsoOUTIncomplete,"ax",%progbits
 1028              		.align	1
 1029              		.global	USBD_LL_IsoOUTIncomplete
 1030              		.syntax unified
 1031              		.code	16
 1032              		.thumb_func
 1034              	USBD_LL_IsoOUTIncomplete:
 1035              	.LVL81:
 1036              	.LFB517:
 955:Middlewares/ST/STM32_USB_Device_Library/Core/Src/usbd_core.c **** 
 956:Middlewares/ST/STM32_USB_Device_Library/Core/Src/usbd_core.c **** /**
 957:Middlewares/ST/STM32_USB_Device_Library/Core/Src/usbd_core.c ****   * @brief  USBD_LL_IsoOUTIncomplete
 958:Middlewares/ST/STM32_USB_Device_Library/Core/Src/usbd_core.c ****   *         Handle iso out incomplete event
 959:Middlewares/ST/STM32_USB_Device_Library/Core/Src/usbd_core.c ****   * @param  pdev: device instance
 960:Middlewares/ST/STM32_USB_Device_Library/Core/Src/usbd_core.c ****   * @retval status
 961:Middlewares/ST/STM32_USB_Device_Library/Core/Src/usbd_core.c ****   */
 962:Middlewares/ST/STM32_USB_Device_Library/Core/Src/usbd_core.c **** USBD_StatusTypeDef USBD_LL_IsoOUTIncomplete(USBD_HandleTypeDef *pdev,
 963:Middlewares/ST/STM32_USB_Device_Library/Core/Src/usbd_core.c ****                                             uint8_t epnum)
 964:Middlewares/ST/STM32_USB_Device_Library/Core/Src/usbd_core.c **** {
 1037              		.loc 1 964 1 is_stmt 1 view -0
 1038              		.cfi_startproc
 1039              		@ args = 0, pretend = 0, frame = 0
 1040              		@ frame_needed = 0, uses_anonymous_args = 0
 1041              		.loc 1 964 1 is_stmt 0 view .LVU265
 1042 0000 10B5     		push	{r4, lr}
 1043              	.LCFI12:
 1044              		.cfi_def_cfa_offset 8
 1045              		.cfi_offset 4, -8
 1046              		.cfi_offset 14, -4
 965:Middlewares/ST/STM32_USB_Device_Library/Core/Src/usbd_core.c ****   if (pdev->pClass[pdev->classId] == NULL)
 1047              		.loc 1 965 3 is_stmt 1 view .LVU266
 1048              		.loc 1 965 24 is_stmt 0 view .LVU267
 1049 0002 B523     		movs	r3, #181
 1050 0004 9B00     		lsls	r3, r3, #2
 1051 0006 C358     		ldr	r3, [r0, r3]
 1052              		.loc 1 965 19 view .LVU268
 1053 0008 AE33     		adds	r3, r3, #174
 1054 000a 9B00     		lsls	r3, r3, #2
 1055 000c 1B58     		ldr	r3, [r3, r0]
 1056              		.loc 1 965 6 view .LVU269
 1057 000e 002B     		cmp	r3, #0
 1058 0010 0CD0     		beq	.L61
 966:Middlewares/ST/STM32_USB_Device_Library/Core/Src/usbd_core.c ****   {
ARM GAS  /tmp/ccrU7oA5.s 			page 37


 967:Middlewares/ST/STM32_USB_Device_Library/Core/Src/usbd_core.c ****     return USBD_FAIL;
 968:Middlewares/ST/STM32_USB_Device_Library/Core/Src/usbd_core.c ****   }
 969:Middlewares/ST/STM32_USB_Device_Library/Core/Src/usbd_core.c **** 
 970:Middlewares/ST/STM32_USB_Device_Library/Core/Src/usbd_core.c ****   if (pdev->dev_state == USBD_STATE_CONFIGURED)
 1059              		.loc 1 970 3 is_stmt 1 view .LVU270
 1060              		.loc 1 970 11 is_stmt 0 view .LVU271
 1061 0012 A722     		movs	r2, #167
 1062 0014 9200     		lsls	r2, r2, #2
 1063 0016 825C     		ldrb	r2, [r0, r2]
 1064              		.loc 1 970 6 view .LVU272
 1065 0018 032A     		cmp	r2, #3
 1066 001a 01D0     		beq	.L64
 971:Middlewares/ST/STM32_USB_Device_Library/Core/Src/usbd_core.c ****   {
 972:Middlewares/ST/STM32_USB_Device_Library/Core/Src/usbd_core.c ****     if (pdev->pClass[pdev->classId]->IsoOUTIncomplete != NULL)
 973:Middlewares/ST/STM32_USB_Device_Library/Core/Src/usbd_core.c ****     {
 974:Middlewares/ST/STM32_USB_Device_Library/Core/Src/usbd_core.c ****       (void)pdev->pClass[pdev->classId]->IsoOUTIncomplete(pdev, epnum);
 975:Middlewares/ST/STM32_USB_Device_Library/Core/Src/usbd_core.c ****     }
 976:Middlewares/ST/STM32_USB_Device_Library/Core/Src/usbd_core.c ****   }
 977:Middlewares/ST/STM32_USB_Device_Library/Core/Src/usbd_core.c **** 
 978:Middlewares/ST/STM32_USB_Device_Library/Core/Src/usbd_core.c ****   return USBD_OK;
 1067              		.loc 1 978 10 view .LVU273
 1068 001c 0020     		movs	r0, #0
 1069              	.LVL82:
 1070              	.L60:
 979:Middlewares/ST/STM32_USB_Device_Library/Core/Src/usbd_core.c **** }
 1071              		.loc 1 979 1 view .LVU274
 1072              		@ sp needed
 1073 001e 10BD     		pop	{r4, pc}
 1074              	.LVL83:
 1075              	.L64:
 972:Middlewares/ST/STM32_USB_Device_Library/Core/Src/usbd_core.c ****     {
 1076              		.loc 1 972 5 is_stmt 1 view .LVU275
 972:Middlewares/ST/STM32_USB_Device_Library/Core/Src/usbd_core.c ****     {
 1077              		.loc 1 972 36 is_stmt 0 view .LVU276
 1078 0020 5B6A     		ldr	r3, [r3, #36]
 972:Middlewares/ST/STM32_USB_Device_Library/Core/Src/usbd_core.c ****     {
 1079              		.loc 1 972 8 view .LVU277
 1080 0022 002B     		cmp	r3, #0
 1081 0024 04D0     		beq	.L63
 974:Middlewares/ST/STM32_USB_Device_Library/Core/Src/usbd_core.c ****     }
 1082              		.loc 1 974 7 is_stmt 1 view .LVU278
 974:Middlewares/ST/STM32_USB_Device_Library/Core/Src/usbd_core.c ****     }
 1083              		.loc 1 974 13 is_stmt 0 view .LVU279
 1084 0026 9847     		blx	r3
 1085              	.LVL84:
 978:Middlewares/ST/STM32_USB_Device_Library/Core/Src/usbd_core.c **** }
 1086              		.loc 1 978 10 view .LVU280
 1087 0028 0020     		movs	r0, #0
 1088 002a F8E7     		b	.L60
 1089              	.LVL85:
 1090              	.L61:
 967:Middlewares/ST/STM32_USB_Device_Library/Core/Src/usbd_core.c ****   }
 1091              		.loc 1 967 12 view .LVU281
 1092 002c 0320     		movs	r0, #3
 1093              	.LVL86:
 967:Middlewares/ST/STM32_USB_Device_Library/Core/Src/usbd_core.c ****   }
 1094              		.loc 1 967 12 view .LVU282
ARM GAS  /tmp/ccrU7oA5.s 			page 38


 1095 002e F6E7     		b	.L60
 1096              	.LVL87:
 1097              	.L63:
 978:Middlewares/ST/STM32_USB_Device_Library/Core/Src/usbd_core.c **** }
 1098              		.loc 1 978 10 view .LVU283
 1099 0030 0020     		movs	r0, #0
 1100              	.LVL88:
 978:Middlewares/ST/STM32_USB_Device_Library/Core/Src/usbd_core.c **** }
 1101              		.loc 1 978 10 view .LVU284
 1102 0032 F4E7     		b	.L60
 1103              		.cfi_endproc
 1104              	.LFE517:
 1106              		.section	.text.USBD_LL_DevConnected,"ax",%progbits
 1107              		.align	1
 1108              		.global	USBD_LL_DevConnected
 1109              		.syntax unified
 1110              		.code	16
 1111              		.thumb_func
 1113              	USBD_LL_DevConnected:
 1114              	.LVL89:
 1115              	.LFB518:
 980:Middlewares/ST/STM32_USB_Device_Library/Core/Src/usbd_core.c **** 
 981:Middlewares/ST/STM32_USB_Device_Library/Core/Src/usbd_core.c **** /**
 982:Middlewares/ST/STM32_USB_Device_Library/Core/Src/usbd_core.c ****   * @brief  USBD_LL_DevConnected
 983:Middlewares/ST/STM32_USB_Device_Library/Core/Src/usbd_core.c ****   *         Handle device connection event
 984:Middlewares/ST/STM32_USB_Device_Library/Core/Src/usbd_core.c ****   * @param  pdev: device instance
 985:Middlewares/ST/STM32_USB_Device_Library/Core/Src/usbd_core.c ****   * @retval status
 986:Middlewares/ST/STM32_USB_Device_Library/Core/Src/usbd_core.c ****   */
 987:Middlewares/ST/STM32_USB_Device_Library/Core/Src/usbd_core.c **** USBD_StatusTypeDef USBD_LL_DevConnected(USBD_HandleTypeDef *pdev)
 988:Middlewares/ST/STM32_USB_Device_Library/Core/Src/usbd_core.c **** {
 1116              		.loc 1 988 1 is_stmt 1 view -0
 1117              		.cfi_startproc
 1118              		@ args = 0, pretend = 0, frame = 0
 1119              		@ frame_needed = 0, uses_anonymous_args = 0
 1120              		@ link register save eliminated.
 989:Middlewares/ST/STM32_USB_Device_Library/Core/Src/usbd_core.c ****   /* Prevent unused argument compilation warning */
 990:Middlewares/ST/STM32_USB_Device_Library/Core/Src/usbd_core.c ****   UNUSED(pdev);
 1121              		.loc 1 990 3 view .LVU286
 991:Middlewares/ST/STM32_USB_Device_Library/Core/Src/usbd_core.c **** 
 992:Middlewares/ST/STM32_USB_Device_Library/Core/Src/usbd_core.c ****   return USBD_OK;
 1122              		.loc 1 992 3 view .LVU287
 993:Middlewares/ST/STM32_USB_Device_Library/Core/Src/usbd_core.c **** }
 1123              		.loc 1 993 1 is_stmt 0 view .LVU288
 1124 0000 0020     		movs	r0, #0
 1125              	.LVL90:
 1126              		.loc 1 993 1 view .LVU289
 1127              		@ sp needed
 1128 0002 7047     		bx	lr
 1129              		.cfi_endproc
 1130              	.LFE518:
 1132              		.section	.text.USBD_LL_DevDisconnected,"ax",%progbits
 1133              		.align	1
 1134              		.global	USBD_LL_DevDisconnected
 1135              		.syntax unified
 1136              		.code	16
 1137              		.thumb_func
 1139              	USBD_LL_DevDisconnected:
ARM GAS  /tmp/ccrU7oA5.s 			page 39


 1140              	.LVL91:
 1141              	.LFB519:
 994:Middlewares/ST/STM32_USB_Device_Library/Core/Src/usbd_core.c **** 
 995:Middlewares/ST/STM32_USB_Device_Library/Core/Src/usbd_core.c **** /**
 996:Middlewares/ST/STM32_USB_Device_Library/Core/Src/usbd_core.c ****   * @brief  USBD_LL_DevDisconnected
 997:Middlewares/ST/STM32_USB_Device_Library/Core/Src/usbd_core.c ****   *         Handle device disconnection event
 998:Middlewares/ST/STM32_USB_Device_Library/Core/Src/usbd_core.c ****   * @param  pdev: device instance
 999:Middlewares/ST/STM32_USB_Device_Library/Core/Src/usbd_core.c ****   * @retval status
1000:Middlewares/ST/STM32_USB_Device_Library/Core/Src/usbd_core.c ****   */
1001:Middlewares/ST/STM32_USB_Device_Library/Core/Src/usbd_core.c **** USBD_StatusTypeDef USBD_LL_DevDisconnected(USBD_HandleTypeDef *pdev)
1002:Middlewares/ST/STM32_USB_Device_Library/Core/Src/usbd_core.c **** {
 1142              		.loc 1 1002 1 is_stmt 1 view -0
 1143              		.cfi_startproc
 1144              		@ args = 0, pretend = 0, frame = 0
 1145              		@ frame_needed = 0, uses_anonymous_args = 0
 1146              		.loc 1 1002 1 is_stmt 0 view .LVU291
 1147 0000 10B5     		push	{r4, lr}
 1148              	.LCFI13:
 1149              		.cfi_def_cfa_offset 8
 1150              		.cfi_offset 4, -8
 1151              		.cfi_offset 14, -4
1003:Middlewares/ST/STM32_USB_Device_Library/Core/Src/usbd_core.c ****   USBD_StatusTypeDef   ret = USBD_OK;
 1152              		.loc 1 1003 3 is_stmt 1 view .LVU292
 1153              	.LVL92:
1004:Middlewares/ST/STM32_USB_Device_Library/Core/Src/usbd_core.c **** 
1005:Middlewares/ST/STM32_USB_Device_Library/Core/Src/usbd_core.c ****   /* Free Class Resources */
1006:Middlewares/ST/STM32_USB_Device_Library/Core/Src/usbd_core.c ****   pdev->dev_state = USBD_STATE_DEFAULT;
 1154              		.loc 1 1006 3 view .LVU293
 1155              		.loc 1 1006 19 is_stmt 0 view .LVU294
 1156 0002 A723     		movs	r3, #167
 1157 0004 9B00     		lsls	r3, r3, #2
 1158 0006 0122     		movs	r2, #1
 1159 0008 C254     		strb	r2, [r0, r3]
1007:Middlewares/ST/STM32_USB_Device_Library/Core/Src/usbd_core.c **** 
1008:Middlewares/ST/STM32_USB_Device_Library/Core/Src/usbd_core.c **** #ifdef USE_USBD_COMPOSITE
1009:Middlewares/ST/STM32_USB_Device_Library/Core/Src/usbd_core.c ****   /* Parse the table of classes in use */
1010:Middlewares/ST/STM32_USB_Device_Library/Core/Src/usbd_core.c ****   for (uint32_t i = 0; i < USBD_MAX_SUPPORTED_CLASS; i++)
1011:Middlewares/ST/STM32_USB_Device_Library/Core/Src/usbd_core.c ****   {
1012:Middlewares/ST/STM32_USB_Device_Library/Core/Src/usbd_core.c ****     /* Check if current class is in use */
1013:Middlewares/ST/STM32_USB_Device_Library/Core/Src/usbd_core.c ****     if ((pdev->tclasslist[i].Active) == 1U)
1014:Middlewares/ST/STM32_USB_Device_Library/Core/Src/usbd_core.c ****     {
1015:Middlewares/ST/STM32_USB_Device_Library/Core/Src/usbd_core.c ****       if (pdev->pClass[i] != NULL)
1016:Middlewares/ST/STM32_USB_Device_Library/Core/Src/usbd_core.c ****       {
1017:Middlewares/ST/STM32_USB_Device_Library/Core/Src/usbd_core.c ****         pdev->classId = i;
1018:Middlewares/ST/STM32_USB_Device_Library/Core/Src/usbd_core.c ****         /* Clear configuration  and De-initialize the Class process*/
1019:Middlewares/ST/STM32_USB_Device_Library/Core/Src/usbd_core.c ****         if (pdev->pClass[i]->DeInit(pdev, (uint8_t)pdev->dev_config) != 0U)
1020:Middlewares/ST/STM32_USB_Device_Library/Core/Src/usbd_core.c ****         {
1021:Middlewares/ST/STM32_USB_Device_Library/Core/Src/usbd_core.c ****           ret = USBD_FAIL;
1022:Middlewares/ST/STM32_USB_Device_Library/Core/Src/usbd_core.c ****         }
1023:Middlewares/ST/STM32_USB_Device_Library/Core/Src/usbd_core.c ****       }
1024:Middlewares/ST/STM32_USB_Device_Library/Core/Src/usbd_core.c ****     }
1025:Middlewares/ST/STM32_USB_Device_Library/Core/Src/usbd_core.c ****   }
1026:Middlewares/ST/STM32_USB_Device_Library/Core/Src/usbd_core.c **** #else
1027:Middlewares/ST/STM32_USB_Device_Library/Core/Src/usbd_core.c ****   if (pdev->pClass[0] != NULL)
 1160              		.loc 1 1027 3 is_stmt 1 view .LVU295
 1161              		.loc 1 1027 19 is_stmt 0 view .LVU296
 1162 000a 1C33     		adds	r3, r3, #28
ARM GAS  /tmp/ccrU7oA5.s 			page 40


 1163 000c C358     		ldr	r3, [r0, r3]
 1164              		.loc 1 1027 6 view .LVU297
 1165 000e 002B     		cmp	r3, #0
 1166 0010 05D0     		beq	.L68
1028:Middlewares/ST/STM32_USB_Device_Library/Core/Src/usbd_core.c ****   {
1029:Middlewares/ST/STM32_USB_Device_Library/Core/Src/usbd_core.c ****     if (pdev->pClass[0]->DeInit(pdev, (uint8_t)pdev->dev_config) != 0U)
 1167              		.loc 1 1029 5 is_stmt 1 view .LVU298
 1168              		.loc 1 1029 24 is_stmt 0 view .LVU299
 1169 0012 5B68     		ldr	r3, [r3, #4]
 1170              		.loc 1 1029 9 view .LVU300
 1171 0014 0179     		ldrb	r1, [r0, #4]
 1172 0016 9847     		blx	r3
 1173              	.LVL93:
 1174              		.loc 1 1029 8 discriminator 1 view .LVU301
 1175 0018 0028     		cmp	r0, #0
 1176 001a 02D1     		bne	.L70
 1177              	.L67:
 1178              	.LVL94:
1030:Middlewares/ST/STM32_USB_Device_Library/Core/Src/usbd_core.c ****     {
1031:Middlewares/ST/STM32_USB_Device_Library/Core/Src/usbd_core.c ****       ret = USBD_FAIL;
1032:Middlewares/ST/STM32_USB_Device_Library/Core/Src/usbd_core.c ****     }
1033:Middlewares/ST/STM32_USB_Device_Library/Core/Src/usbd_core.c ****   }
1034:Middlewares/ST/STM32_USB_Device_Library/Core/Src/usbd_core.c **** #endif /* USE_USBD_COMPOSITE */
1035:Middlewares/ST/STM32_USB_Device_Library/Core/Src/usbd_core.c **** 
1036:Middlewares/ST/STM32_USB_Device_Library/Core/Src/usbd_core.c ****   return ret;
 1179              		.loc 1 1036 3 is_stmt 1 view .LVU302
1037:Middlewares/ST/STM32_USB_Device_Library/Core/Src/usbd_core.c **** }
 1180              		.loc 1 1037 1 is_stmt 0 view .LVU303
 1181              		@ sp needed
 1182 001c 10BD     		pop	{r4, pc}
 1183              	.LVL95:
 1184              	.L68:
1003:Middlewares/ST/STM32_USB_Device_Library/Core/Src/usbd_core.c **** 
 1185              		.loc 1 1003 24 view .LVU304
 1186 001e 0020     		movs	r0, #0
 1187              	.LVL96:
1003:Middlewares/ST/STM32_USB_Device_Library/Core/Src/usbd_core.c **** 
 1188              		.loc 1 1003 24 view .LVU305
 1189 0020 FCE7     		b	.L67
 1190              	.L70:
1031:Middlewares/ST/STM32_USB_Device_Library/Core/Src/usbd_core.c ****     }
 1191              		.loc 1 1031 11 view .LVU306
 1192 0022 0320     		movs	r0, #3
 1193 0024 FAE7     		b	.L67
 1194              		.cfi_endproc
 1195              	.LFE519:
 1197              		.section	.text.USBD_CoreFindIF,"ax",%progbits
 1198              		.align	1
 1199              		.global	USBD_CoreFindIF
 1200              		.syntax unified
 1201              		.code	16
 1202              		.thumb_func
 1204              	USBD_CoreFindIF:
 1205              	.LVL97:
 1206              	.LFB520:
1038:Middlewares/ST/STM32_USB_Device_Library/Core/Src/usbd_core.c **** 
1039:Middlewares/ST/STM32_USB_Device_Library/Core/Src/usbd_core.c **** /**
ARM GAS  /tmp/ccrU7oA5.s 			page 41


1040:Middlewares/ST/STM32_USB_Device_Library/Core/Src/usbd_core.c ****   * @brief  USBD_CoreFindIF
1041:Middlewares/ST/STM32_USB_Device_Library/Core/Src/usbd_core.c ****   *         return the class index relative to the selected interface
1042:Middlewares/ST/STM32_USB_Device_Library/Core/Src/usbd_core.c ****   * @param  pdev: device instance
1043:Middlewares/ST/STM32_USB_Device_Library/Core/Src/usbd_core.c ****   * @param  index : selected interface number
1044:Middlewares/ST/STM32_USB_Device_Library/Core/Src/usbd_core.c ****   * @retval index of the class using the selected interface number. OxFF if no class found.
1045:Middlewares/ST/STM32_USB_Device_Library/Core/Src/usbd_core.c ****   */
1046:Middlewares/ST/STM32_USB_Device_Library/Core/Src/usbd_core.c **** uint8_t USBD_CoreFindIF(USBD_HandleTypeDef *pdev, uint8_t index)
1047:Middlewares/ST/STM32_USB_Device_Library/Core/Src/usbd_core.c **** {
 1207              		.loc 1 1047 1 is_stmt 1 view -0
 1208              		.cfi_startproc
 1209              		@ args = 0, pretend = 0, frame = 0
 1210              		@ frame_needed = 0, uses_anonymous_args = 0
 1211              		@ link register save eliminated.
1048:Middlewares/ST/STM32_USB_Device_Library/Core/Src/usbd_core.c **** #ifdef USE_USBD_COMPOSITE
1049:Middlewares/ST/STM32_USB_Device_Library/Core/Src/usbd_core.c ****   /* Parse the table of classes in use */
1050:Middlewares/ST/STM32_USB_Device_Library/Core/Src/usbd_core.c ****   for (uint32_t i = 0U; i < USBD_MAX_SUPPORTED_CLASS; i++)
1051:Middlewares/ST/STM32_USB_Device_Library/Core/Src/usbd_core.c ****   {
1052:Middlewares/ST/STM32_USB_Device_Library/Core/Src/usbd_core.c ****     /* Check if current class is in use */
1053:Middlewares/ST/STM32_USB_Device_Library/Core/Src/usbd_core.c ****     if ((pdev->tclasslist[i].Active) == 1U)
1054:Middlewares/ST/STM32_USB_Device_Library/Core/Src/usbd_core.c ****     {
1055:Middlewares/ST/STM32_USB_Device_Library/Core/Src/usbd_core.c ****       /* Parse all interfaces listed in the current class */
1056:Middlewares/ST/STM32_USB_Device_Library/Core/Src/usbd_core.c ****       for (uint32_t j = 0U; j < pdev->tclasslist[i].NumIf; j++)
1057:Middlewares/ST/STM32_USB_Device_Library/Core/Src/usbd_core.c ****       {
1058:Middlewares/ST/STM32_USB_Device_Library/Core/Src/usbd_core.c ****         /* Check if requested Interface matches the current class interface */
1059:Middlewares/ST/STM32_USB_Device_Library/Core/Src/usbd_core.c ****         if (pdev->tclasslist[i].Ifs[j] == index)
1060:Middlewares/ST/STM32_USB_Device_Library/Core/Src/usbd_core.c ****         {
1061:Middlewares/ST/STM32_USB_Device_Library/Core/Src/usbd_core.c ****           if (pdev->pClass[i]->Setup != NULL)
1062:Middlewares/ST/STM32_USB_Device_Library/Core/Src/usbd_core.c ****           {
1063:Middlewares/ST/STM32_USB_Device_Library/Core/Src/usbd_core.c ****             return (uint8_t)i;
1064:Middlewares/ST/STM32_USB_Device_Library/Core/Src/usbd_core.c ****           }
1065:Middlewares/ST/STM32_USB_Device_Library/Core/Src/usbd_core.c ****         }
1066:Middlewares/ST/STM32_USB_Device_Library/Core/Src/usbd_core.c ****       }
1067:Middlewares/ST/STM32_USB_Device_Library/Core/Src/usbd_core.c ****     }
1068:Middlewares/ST/STM32_USB_Device_Library/Core/Src/usbd_core.c ****   }
1069:Middlewares/ST/STM32_USB_Device_Library/Core/Src/usbd_core.c **** 
1070:Middlewares/ST/STM32_USB_Device_Library/Core/Src/usbd_core.c ****   return 0xFFU;
1071:Middlewares/ST/STM32_USB_Device_Library/Core/Src/usbd_core.c **** #else
1072:Middlewares/ST/STM32_USB_Device_Library/Core/Src/usbd_core.c ****   UNUSED(pdev);
 1212              		.loc 1 1072 3 view .LVU308
1073:Middlewares/ST/STM32_USB_Device_Library/Core/Src/usbd_core.c ****   UNUSED(index);
 1213              		.loc 1 1073 3 view .LVU309
1074:Middlewares/ST/STM32_USB_Device_Library/Core/Src/usbd_core.c **** 
1075:Middlewares/ST/STM32_USB_Device_Library/Core/Src/usbd_core.c ****   return 0x00U;
 1214              		.loc 1 1075 3 view .LVU310
1076:Middlewares/ST/STM32_USB_Device_Library/Core/Src/usbd_core.c **** #endif /* USE_USBD_COMPOSITE */
1077:Middlewares/ST/STM32_USB_Device_Library/Core/Src/usbd_core.c **** }
 1215              		.loc 1 1077 1 is_stmt 0 view .LVU311
 1216 0000 0020     		movs	r0, #0
 1217              	.LVL98:
 1218              		.loc 1 1077 1 view .LVU312
 1219              		@ sp needed
 1220 0002 7047     		bx	lr
 1221              		.cfi_endproc
 1222              	.LFE520:
 1224              		.section	.text.USBD_CoreFindEP,"ax",%progbits
 1225              		.align	1
 1226              		.global	USBD_CoreFindEP
ARM GAS  /tmp/ccrU7oA5.s 			page 42


 1227              		.syntax unified
 1228              		.code	16
 1229              		.thumb_func
 1231              	USBD_CoreFindEP:
 1232              	.LVL99:
 1233              	.LFB521:
1078:Middlewares/ST/STM32_USB_Device_Library/Core/Src/usbd_core.c **** 
1079:Middlewares/ST/STM32_USB_Device_Library/Core/Src/usbd_core.c **** /**
1080:Middlewares/ST/STM32_USB_Device_Library/Core/Src/usbd_core.c ****   * @brief  USBD_CoreFindEP
1081:Middlewares/ST/STM32_USB_Device_Library/Core/Src/usbd_core.c ****   *         return the class index relative to the selected endpoint
1082:Middlewares/ST/STM32_USB_Device_Library/Core/Src/usbd_core.c ****   * @param  pdev: device instance
1083:Middlewares/ST/STM32_USB_Device_Library/Core/Src/usbd_core.c ****   * @param  index : selected endpoint number
1084:Middlewares/ST/STM32_USB_Device_Library/Core/Src/usbd_core.c ****   * @retval index of the class using the selected endpoint number. 0xFF if no class found.
1085:Middlewares/ST/STM32_USB_Device_Library/Core/Src/usbd_core.c ****   */
1086:Middlewares/ST/STM32_USB_Device_Library/Core/Src/usbd_core.c **** uint8_t USBD_CoreFindEP(USBD_HandleTypeDef *pdev, uint8_t index)
1087:Middlewares/ST/STM32_USB_Device_Library/Core/Src/usbd_core.c **** {
 1234              		.loc 1 1087 1 is_stmt 1 view -0
 1235              		.cfi_startproc
 1236              		@ args = 0, pretend = 0, frame = 0
 1237              		@ frame_needed = 0, uses_anonymous_args = 0
 1238              		@ link register save eliminated.
1088:Middlewares/ST/STM32_USB_Device_Library/Core/Src/usbd_core.c **** #ifdef USE_USBD_COMPOSITE
1089:Middlewares/ST/STM32_USB_Device_Library/Core/Src/usbd_core.c ****   /* Parse the table of classes in use */
1090:Middlewares/ST/STM32_USB_Device_Library/Core/Src/usbd_core.c ****   for (uint32_t i = 0U; i < USBD_MAX_SUPPORTED_CLASS; i++)
1091:Middlewares/ST/STM32_USB_Device_Library/Core/Src/usbd_core.c ****   {
1092:Middlewares/ST/STM32_USB_Device_Library/Core/Src/usbd_core.c ****     /* Check if current class is in use */
1093:Middlewares/ST/STM32_USB_Device_Library/Core/Src/usbd_core.c ****     if ((pdev->tclasslist[i].Active) == 1U)
1094:Middlewares/ST/STM32_USB_Device_Library/Core/Src/usbd_core.c ****     {
1095:Middlewares/ST/STM32_USB_Device_Library/Core/Src/usbd_core.c ****       /* Parse all endpoints listed in the current class */
1096:Middlewares/ST/STM32_USB_Device_Library/Core/Src/usbd_core.c ****       for (uint32_t j = 0U; j < pdev->tclasslist[i].NumEps; j++)
1097:Middlewares/ST/STM32_USB_Device_Library/Core/Src/usbd_core.c ****       {
1098:Middlewares/ST/STM32_USB_Device_Library/Core/Src/usbd_core.c ****         /* Check if requested endpoint matches the current class endpoint */
1099:Middlewares/ST/STM32_USB_Device_Library/Core/Src/usbd_core.c ****         if (pdev->tclasslist[i].Eps[j].add == index)
1100:Middlewares/ST/STM32_USB_Device_Library/Core/Src/usbd_core.c ****         {
1101:Middlewares/ST/STM32_USB_Device_Library/Core/Src/usbd_core.c ****           if (pdev->pClass[i]->Setup != NULL)
1102:Middlewares/ST/STM32_USB_Device_Library/Core/Src/usbd_core.c ****           {
1103:Middlewares/ST/STM32_USB_Device_Library/Core/Src/usbd_core.c ****             return (uint8_t)i;
1104:Middlewares/ST/STM32_USB_Device_Library/Core/Src/usbd_core.c ****           }
1105:Middlewares/ST/STM32_USB_Device_Library/Core/Src/usbd_core.c ****         }
1106:Middlewares/ST/STM32_USB_Device_Library/Core/Src/usbd_core.c ****       }
1107:Middlewares/ST/STM32_USB_Device_Library/Core/Src/usbd_core.c ****     }
1108:Middlewares/ST/STM32_USB_Device_Library/Core/Src/usbd_core.c ****   }
1109:Middlewares/ST/STM32_USB_Device_Library/Core/Src/usbd_core.c **** 
1110:Middlewares/ST/STM32_USB_Device_Library/Core/Src/usbd_core.c ****   return 0xFFU;
1111:Middlewares/ST/STM32_USB_Device_Library/Core/Src/usbd_core.c **** #else
1112:Middlewares/ST/STM32_USB_Device_Library/Core/Src/usbd_core.c ****   UNUSED(pdev);
 1239              		.loc 1 1112 3 view .LVU314
1113:Middlewares/ST/STM32_USB_Device_Library/Core/Src/usbd_core.c ****   UNUSED(index);
 1240              		.loc 1 1113 3 view .LVU315
1114:Middlewares/ST/STM32_USB_Device_Library/Core/Src/usbd_core.c **** 
1115:Middlewares/ST/STM32_USB_Device_Library/Core/Src/usbd_core.c ****   return 0x00U;
 1241              		.loc 1 1115 3 view .LVU316
1116:Middlewares/ST/STM32_USB_Device_Library/Core/Src/usbd_core.c **** #endif /* USE_USBD_COMPOSITE */
1117:Middlewares/ST/STM32_USB_Device_Library/Core/Src/usbd_core.c **** }
 1242              		.loc 1 1117 1 is_stmt 0 view .LVU317
 1243 0000 0020     		movs	r0, #0
 1244              	.LVL100:
ARM GAS  /tmp/ccrU7oA5.s 			page 43


 1245              		.loc 1 1117 1 view .LVU318
 1246              		@ sp needed
 1247 0002 7047     		bx	lr
 1248              		.cfi_endproc
 1249              	.LFE521:
 1251              		.section	.text.USBD_LL_DataOutStage,"ax",%progbits
 1252              		.align	1
 1253              		.global	USBD_LL_DataOutStage
 1254              		.syntax unified
 1255              		.code	16
 1256              		.thumb_func
 1258              	USBD_LL_DataOutStage:
 1259              	.LVL101:
 1260              	.LFB509:
 574:Middlewares/ST/STM32_USB_Device_Library/Core/Src/usbd_core.c ****   USBD_EndpointTypeDef *pep;
 1261              		.loc 1 574 1 is_stmt 1 view -0
 1262              		.cfi_startproc
 1263              		@ args = 0, pretend = 0, frame = 0
 1264              		@ frame_needed = 0, uses_anonymous_args = 0
 574:Middlewares/ST/STM32_USB_Device_Library/Core/Src/usbd_core.c ****   USBD_EndpointTypeDef *pep;
 1265              		.loc 1 574 1 is_stmt 0 view .LVU320
 1266 0000 70B5     		push	{r4, r5, r6, lr}
 1267              	.LCFI14:
 1268              		.cfi_def_cfa_offset 16
 1269              		.cfi_offset 4, -16
 1270              		.cfi_offset 5, -12
 1271              		.cfi_offset 6, -8
 1272              		.cfi_offset 14, -4
 1273 0002 0400     		movs	r4, r0
 1274 0004 0D00     		movs	r5, r1
 1275 0006 1100     		movs	r1, r2
 1276              	.LVL102:
 575:Middlewares/ST/STM32_USB_Device_Library/Core/Src/usbd_core.c ****   USBD_StatusTypeDef ret = USBD_OK;
 1277              		.loc 1 575 3 is_stmt 1 view .LVU321
 576:Middlewares/ST/STM32_USB_Device_Library/Core/Src/usbd_core.c ****   uint8_t idx;
 1278              		.loc 1 576 3 view .LVU322
 577:Middlewares/ST/STM32_USB_Device_Library/Core/Src/usbd_core.c **** 
 1279              		.loc 1 577 3 view .LVU323
 579:Middlewares/ST/STM32_USB_Device_Library/Core/Src/usbd_core.c ****   {
 1280              		.loc 1 579 3 view .LVU324
 579:Middlewares/ST/STM32_USB_Device_Library/Core/Src/usbd_core.c ****   {
 1281              		.loc 1 579 6 is_stmt 0 view .LVU325
 1282 0008 002D     		cmp	r5, #0
 1283 000a 46D1     		bne	.L74
 581:Middlewares/ST/STM32_USB_Device_Library/Core/Src/usbd_core.c **** 
 1284              		.loc 1 581 5 is_stmt 1 view .LVU326
 1285              	.LVL103:
 583:Middlewares/ST/STM32_USB_Device_Library/Core/Src/usbd_core.c ****     {
 1286              		.loc 1 583 5 view .LVU327
 583:Middlewares/ST/STM32_USB_Device_Library/Core/Src/usbd_core.c ****     {
 1287              		.loc 1 583 13 is_stmt 0 view .LVU328
 1288 000c A523     		movs	r3, #165
 1289 000e 9B00     		lsls	r3, r3, #2
 1290 0010 C358     		ldr	r3, [r0, r3]
 583:Middlewares/ST/STM32_USB_Device_Library/Core/Src/usbd_core.c ****     {
 1291              		.loc 1 583 8 view .LVU329
 1292 0012 032B     		cmp	r3, #3
ARM GAS  /tmp/ccrU7oA5.s 			page 44


 1293 0014 01D0     		beq	.L85
 669:Middlewares/ST/STM32_USB_Device_Library/Core/Src/usbd_core.c **** }
 1294              		.loc 1 669 10 view .LVU330
 1295 0016 2800     		movs	r0, r5
 1296              	.LVL104:
 1297              	.L75:
 670:Middlewares/ST/STM32_USB_Device_Library/Core/Src/usbd_core.c **** 
 1298              		.loc 1 670 1 view .LVU331
 1299              		@ sp needed
 1300              	.LVL105:
 1301              	.LVL106:
 670:Middlewares/ST/STM32_USB_Device_Library/Core/Src/usbd_core.c **** 
 1302              		.loc 1 670 1 view .LVU332
 1303 0018 70BD     		pop	{r4, r5, r6, pc}
 1304              	.LVL107:
 1305              	.L85:
 585:Middlewares/ST/STM32_USB_Device_Library/Core/Src/usbd_core.c ****       {
 1306              		.loc 1 585 7 is_stmt 1 view .LVU333
 585:Middlewares/ST/STM32_USB_Device_Library/Core/Src/usbd_core.c ****       {
 1307              		.loc 1 585 14 is_stmt 0 view .LVU334
 1308 001a 0200     		movs	r2, r0
 1309 001c 5532     		adds	r2, r2, #85
 1310 001e FF32     		adds	r2, r2, #255
 1311 0020 9368     		ldr	r3, [r2, #8]
 585:Middlewares/ST/STM32_USB_Device_Library/Core/Src/usbd_core.c ****       {
 1312              		.loc 1 585 32 view .LVU335
 1313 0022 D268     		ldr	r2, [r2, #12]
 585:Middlewares/ST/STM32_USB_Device_Library/Core/Src/usbd_core.c ****       {
 1314              		.loc 1 585 10 view .LVU336
 1315 0024 9342     		cmp	r3, r2
 1316 0026 09D8     		bhi	.L86
 594:Middlewares/ST/STM32_USB_Device_Library/Core/Src/usbd_core.c ****         {
 1317              		.loc 1 594 9 is_stmt 1 view .LVU337
 594:Middlewares/ST/STM32_USB_Device_Library/Core/Src/usbd_core.c ****         {
 1318              		.loc 1 594 30 is_stmt 0 view .LVU338
 1319 0028 2A4B     		ldr	r3, .L88
 1320 002a C25C     		ldrb	r2, [r0, r3]
 1321 002c 1F23     		movs	r3, #31
 1322 002e 1340     		ands	r3, r2
 594:Middlewares/ST/STM32_USB_Device_Library/Core/Src/usbd_core.c ****         {
 1323              		.loc 1 594 9 view .LVU339
 1324 0030 012B     		cmp	r3, #1
 1325 0032 0FD0     		beq	.L78
 1326 0034 022B     		cmp	r3, #2
 1327 0036 1DD0     		beq	.L79
 1328 0038 2800     		movs	r0, r5
 1329              	.LVL108:
 594:Middlewares/ST/STM32_USB_Device_Library/Core/Src/usbd_core.c ****         {
 1330              		.loc 1 594 9 view .LVU340
 1331 003a 11E0     		b	.L80
 1332              	.LVL109:
 1333              	.L86:
 587:Middlewares/ST/STM32_USB_Device_Library/Core/Src/usbd_core.c **** 
 1334              		.loc 1 587 9 is_stmt 1 view .LVU341
 587:Middlewares/ST/STM32_USB_Device_Library/Core/Src/usbd_core.c **** 
 1335              		.loc 1 587 25 is_stmt 0 view .LVU342
 1336 003c 9B1A     		subs	r3, r3, r2
ARM GAS  /tmp/ccrU7oA5.s 			page 45


 1337 003e 5530     		adds	r0, r0, #85
 1338              	.LVL110:
 587:Middlewares/ST/STM32_USB_Device_Library/Core/Src/usbd_core.c **** 
 1339              		.loc 1 587 25 view .LVU343
 1340 0040 FF30     		adds	r0, r0, #255
 1341 0042 8360     		str	r3, [r0, #8]
 589:Middlewares/ST/STM32_USB_Device_Library/Core/Src/usbd_core.c ****       }
 1342              		.loc 1 589 9 is_stmt 1 view .LVU344
 589:Middlewares/ST/STM32_USB_Device_Library/Core/Src/usbd_core.c ****       }
 1343              		.loc 1 589 15 is_stmt 0 view .LVU345
 1344 0044 9A42     		cmp	r2, r3
 1345 0046 00D9     		bls	.L77
 1346 0048 1A00     		movs	r2, r3
 1347              	.L77:
 1348 004a 2000     		movs	r0, r4
 1349 004c FFF7FEFF 		bl	USBD_CtlContinueRx
 1350              	.LVL111:
 669:Middlewares/ST/STM32_USB_Device_Library/Core/Src/usbd_core.c **** }
 1351              		.loc 1 669 10 view .LVU346
 1352 0050 2800     		movs	r0, r5
 1353 0052 E1E7     		b	.L75
 1354              	.LVL112:
 1355              	.L78:
 603:Middlewares/ST/STM32_USB_Device_Library/Core/Src/usbd_core.c ****             break;
 1356              		.loc 1 603 13 is_stmt 1 view .LVU347
 603:Middlewares/ST/STM32_USB_Device_Library/Core/Src/usbd_core.c ****             break;
 1357              		.loc 1 603 41 is_stmt 0 view .LVU348
 1358 0054 204B     		ldr	r3, .L88+4
 603:Middlewares/ST/STM32_USB_Device_Library/Core/Src/usbd_core.c ****             break;
 1359              		.loc 1 603 19 view .LVU349
 1360 0056 C15C     		ldrb	r1, [r0, r3]
 1361              	.LVL113:
 603:Middlewares/ST/STM32_USB_Device_Library/Core/Src/usbd_core.c ****             break;
 1362              		.loc 1 603 19 view .LVU350
 1363 0058 FFF7FEFF 		bl	USBD_CoreFindIF
 1364              	.LVL114:
 604:Middlewares/ST/STM32_USB_Device_Library/Core/Src/usbd_core.c **** 
 1365              		.loc 1 604 13 is_stmt 1 view .LVU351
 1366              	.L81:
 616:Middlewares/ST/STM32_USB_Device_Library/Core/Src/usbd_core.c ****         {
 1367              		.loc 1 616 9 view .LVU352
 616:Middlewares/ST/STM32_USB_Device_Library/Core/Src/usbd_core.c ****         {
 1368              		.loc 1 616 12 is_stmt 0 view .LVU353
 1369 005c 0028     		cmp	r0, #0
 1370 005e 04D1     		bne	.L82
 1371              	.LVL115:
 1372              	.L80:
 619:Middlewares/ST/STM32_USB_Device_Library/Core/Src/usbd_core.c ****           {
 1373              		.loc 1 619 11 is_stmt 1 view .LVU354
 619:Middlewares/ST/STM32_USB_Device_Library/Core/Src/usbd_core.c ****           {
 1374              		.loc 1 619 19 is_stmt 0 view .LVU355
 1375 0060 A723     		movs	r3, #167
 1376 0062 9B00     		lsls	r3, r3, #2
 1377 0064 E35C     		ldrb	r3, [r4, r3]
 619:Middlewares/ST/STM32_USB_Device_Library/Core/Src/usbd_core.c ****           {
 1378              		.loc 1 619 14 view .LVU356
 1379 0066 032B     		cmp	r3, #3
ARM GAS  /tmp/ccrU7oA5.s 			page 46


 1380 0068 09D0     		beq	.L87
 1381              	.L82:
 629:Middlewares/ST/STM32_USB_Device_Library/Core/Src/usbd_core.c ****       }
 1382              		.loc 1 629 9 is_stmt 1 view .LVU357
 629:Middlewares/ST/STM32_USB_Device_Library/Core/Src/usbd_core.c ****       }
 1383              		.loc 1 629 15 is_stmt 0 view .LVU358
 1384 006a 2000     		movs	r0, r4
 1385 006c FFF7FEFF 		bl	USBD_CtlSendStatus
 1386              	.LVL116:
 669:Middlewares/ST/STM32_USB_Device_Library/Core/Src/usbd_core.c **** }
 1387              		.loc 1 669 10 view .LVU359
 1388 0070 2800     		movs	r0, r5
 1389 0072 D1E7     		b	.L75
 1390              	.LVL117:
 1391              	.L79:
 607:Middlewares/ST/STM32_USB_Device_Library/Core/Src/usbd_core.c ****             break;
 1392              		.loc 1 607 13 is_stmt 1 view .LVU360
 607:Middlewares/ST/STM32_USB_Device_Library/Core/Src/usbd_core.c ****             break;
 1393              		.loc 1 607 41 is_stmt 0 view .LVU361
 1394 0074 184B     		ldr	r3, .L88+4
 607:Middlewares/ST/STM32_USB_Device_Library/Core/Src/usbd_core.c ****             break;
 1395              		.loc 1 607 19 view .LVU362
 1396 0076 C15C     		ldrb	r1, [r0, r3]
 1397              	.LVL118:
 607:Middlewares/ST/STM32_USB_Device_Library/Core/Src/usbd_core.c ****             break;
 1398              		.loc 1 607 19 view .LVU363
 1399 0078 FFF7FEFF 		bl	USBD_CoreFindEP
 1400              	.LVL119:
 608:Middlewares/ST/STM32_USB_Device_Library/Core/Src/usbd_core.c **** 
 1401              		.loc 1 608 13 is_stmt 1 view .LVU364
 1402 007c EEE7     		b	.L81
 1403              	.LVL120:
 1404              	.L87:
 621:Middlewares/ST/STM32_USB_Device_Library/Core/Src/usbd_core.c ****             {
 1405              		.loc 1 621 13 view .LVU365
 621:Middlewares/ST/STM32_USB_Device_Library/Core/Src/usbd_core.c ****             {
 1406              		.loc 1 621 29 is_stmt 0 view .LVU366
 1407 007e 0300     		movs	r3, r0
 1408 0080 AE33     		adds	r3, r3, #174
 1409 0082 9B00     		lsls	r3, r3, #2
 1410 0084 1B59     		ldr	r3, [r3, r4]
 621:Middlewares/ST/STM32_USB_Device_Library/Core/Src/usbd_core.c ****             {
 1411              		.loc 1 621 34 view .LVU367
 1412 0086 1A69     		ldr	r2, [r3, #16]
 621:Middlewares/ST/STM32_USB_Device_Library/Core/Src/usbd_core.c ****             {
 1413              		.loc 1 621 16 view .LVU368
 1414 0088 002A     		cmp	r2, #0
 1415 008a EED0     		beq	.L82
 623:Middlewares/ST/STM32_USB_Device_Library/Core/Src/usbd_core.c ****               pdev->pClass[idx]->EP0_RxReady(pdev);
 1416              		.loc 1 623 15 is_stmt 1 view .LVU369
 623:Middlewares/ST/STM32_USB_Device_Library/Core/Src/usbd_core.c ****               pdev->pClass[idx]->EP0_RxReady(pdev);
 1417              		.loc 1 623 29 is_stmt 0 view .LVU370
 1418 008c B522     		movs	r2, #181
 1419 008e 9200     		lsls	r2, r2, #2
 1420 0090 A050     		str	r0, [r4, r2]
 624:Middlewares/ST/STM32_USB_Device_Library/Core/Src/usbd_core.c ****             }
 1421              		.loc 1 624 15 is_stmt 1 view .LVU371
ARM GAS  /tmp/ccrU7oA5.s 			page 47


 624:Middlewares/ST/STM32_USB_Device_Library/Core/Src/usbd_core.c ****             }
 1422              		.loc 1 624 32 is_stmt 0 view .LVU372
 1423 0092 1B69     		ldr	r3, [r3, #16]
 624:Middlewares/ST/STM32_USB_Device_Library/Core/Src/usbd_core.c ****             }
 1424              		.loc 1 624 15 view .LVU373
 1425 0094 2000     		movs	r0, r4
 1426 0096 9847     		blx	r3
 1427              	.LVL121:
 1428 0098 E7E7     		b	.L82
 1429              	.LVL122:
 1430              	.L74:
 649:Middlewares/ST/STM32_USB_Device_Library/Core/Src/usbd_core.c **** 
 1431              		.loc 1 649 5 is_stmt 1 view .LVU374
 649:Middlewares/ST/STM32_USB_Device_Library/Core/Src/usbd_core.c **** 
 1432              		.loc 1 649 11 is_stmt 0 view .LVU375
 1433 009a 7F21     		movs	r1, #127
 1434              	.LVL123:
 649:Middlewares/ST/STM32_USB_Device_Library/Core/Src/usbd_core.c **** 
 1435              		.loc 1 649 11 view .LVU376
 1436 009c 2940     		ands	r1, r5
 1437 009e FFF7FEFF 		bl	USBD_CoreFindEP
 1438              	.LVL124:
 651:Middlewares/ST/STM32_USB_Device_Library/Core/Src/usbd_core.c ****     {
 1439              		.loc 1 651 5 is_stmt 1 view .LVU377
 651:Middlewares/ST/STM32_USB_Device_Library/Core/Src/usbd_core.c ****     {
 1440              		.loc 1 651 8 is_stmt 0 view .LVU378
 1441 00a2 0028     		cmp	r0, #0
 1442 00a4 13D1     		bne	.L84
 654:Middlewares/ST/STM32_USB_Device_Library/Core/Src/usbd_core.c ****       {
 1443              		.loc 1 654 7 is_stmt 1 view .LVU379
 654:Middlewares/ST/STM32_USB_Device_Library/Core/Src/usbd_core.c ****       {
 1444              		.loc 1 654 15 is_stmt 0 view .LVU380
 1445 00a6 A722     		movs	r2, #167
 1446 00a8 9200     		lsls	r2, r2, #2
 1447 00aa A25C     		ldrb	r2, [r4, r2]
 654:Middlewares/ST/STM32_USB_Device_Library/Core/Src/usbd_core.c ****       {
 1448              		.loc 1 654 10 view .LVU381
 1449 00ac 032A     		cmp	r2, #3
 1450 00ae B3D1     		bne	.L75
 656:Middlewares/ST/STM32_USB_Device_Library/Core/Src/usbd_core.c ****         {
 1451              		.loc 1 656 9 is_stmt 1 view .LVU382
 656:Middlewares/ST/STM32_USB_Device_Library/Core/Src/usbd_core.c ****         {
 1452              		.loc 1 656 25 is_stmt 0 view .LVU383
 1453 00b0 0200     		movs	r2, r0
 1454 00b2 AE32     		adds	r2, r2, #174
 1455 00b4 9200     		lsls	r2, r2, #2
 1456 00b6 1259     		ldr	r2, [r2, r4]
 656:Middlewares/ST/STM32_USB_Device_Library/Core/Src/usbd_core.c ****         {
 1457              		.loc 1 656 30 view .LVU384
 1458 00b8 9169     		ldr	r1, [r2, #24]
 656:Middlewares/ST/STM32_USB_Device_Library/Core/Src/usbd_core.c ****         {
 1459              		.loc 1 656 12 view .LVU385
 1460 00ba 0029     		cmp	r1, #0
 1461 00bc ACD0     		beq	.L75
 658:Middlewares/ST/STM32_USB_Device_Library/Core/Src/usbd_core.c ****           ret = (USBD_StatusTypeDef)pdev->pClass[idx]->DataOut(pdev, epnum);
 1462              		.loc 1 658 11 is_stmt 1 view .LVU386
 658:Middlewares/ST/STM32_USB_Device_Library/Core/Src/usbd_core.c ****           ret = (USBD_StatusTypeDef)pdev->pClass[idx]->DataOut(pdev, epnum);
ARM GAS  /tmp/ccrU7oA5.s 			page 48


 1463              		.loc 1 658 25 is_stmt 0 view .LVU387
 1464 00be B521     		movs	r1, #181
 1465 00c0 8900     		lsls	r1, r1, #2
 1466 00c2 6050     		str	r0, [r4, r1]
 659:Middlewares/ST/STM32_USB_Device_Library/Core/Src/usbd_core.c ****         }
 1467              		.loc 1 659 11 is_stmt 1 view .LVU388
 659:Middlewares/ST/STM32_USB_Device_Library/Core/Src/usbd_core.c ****         }
 1468              		.loc 1 659 54 is_stmt 0 view .LVU389
 1469 00c4 9369     		ldr	r3, [r2, #24]
 659:Middlewares/ST/STM32_USB_Device_Library/Core/Src/usbd_core.c ****         }
 1470              		.loc 1 659 37 view .LVU390
 1471 00c6 2900     		movs	r1, r5
 1472 00c8 2000     		movs	r0, r4
 1473              	.LVL125:
 659:Middlewares/ST/STM32_USB_Device_Library/Core/Src/usbd_core.c ****         }
 1474              		.loc 1 659 37 view .LVU391
 1475 00ca 9847     		blx	r3
 1476              	.LVL126:
 662:Middlewares/ST/STM32_USB_Device_Library/Core/Src/usbd_core.c ****       {
 1477              		.loc 1 662 7 is_stmt 1 view .LVU392
 1478 00cc A4E7     		b	.L75
 1479              	.LVL127:
 1480              	.L84:
 669:Middlewares/ST/STM32_USB_Device_Library/Core/Src/usbd_core.c **** }
 1481              		.loc 1 669 10 is_stmt 0 view .LVU393
 1482 00ce 0020     		movs	r0, #0
 1483              	.LVL128:
 669:Middlewares/ST/STM32_USB_Device_Library/Core/Src/usbd_core.c **** }
 1484              		.loc 1 669 10 view .LVU394
 1485 00d0 A2E7     		b	.L75
 1486              	.L89:
 1487 00d2 C046     		.align	2
 1488              	.L88:
 1489 00d4 AA020000 		.word	682
 1490 00d8 AE020000 		.word	686
 1491              		.cfi_endproc
 1492              	.LFE509:
 1494              		.section	.text.USBD_LL_DataInStage,"ax",%progbits
 1495              		.align	1
 1496              		.global	USBD_LL_DataInStage
 1497              		.syntax unified
 1498              		.code	16
 1499              		.thumb_func
 1501              	USBD_LL_DataInStage:
 1502              	.LVL129:
 1503              	.LFB510:
 681:Middlewares/ST/STM32_USB_Device_Library/Core/Src/usbd_core.c ****   USBD_EndpointTypeDef *pep;
 1504              		.loc 1 681 1 is_stmt 1 view -0
 1505              		.cfi_startproc
 1506              		@ args = 0, pretend = 0, frame = 0
 1507              		@ frame_needed = 0, uses_anonymous_args = 0
 681:Middlewares/ST/STM32_USB_Device_Library/Core/Src/usbd_core.c ****   USBD_EndpointTypeDef *pep;
 1508              		.loc 1 681 1 is_stmt 0 view .LVU396
 1509 0000 70B5     		push	{r4, r5, r6, lr}
 1510              	.LCFI15:
 1511              		.cfi_def_cfa_offset 16
 1512              		.cfi_offset 4, -16
ARM GAS  /tmp/ccrU7oA5.s 			page 49


 1513              		.cfi_offset 5, -12
 1514              		.cfi_offset 6, -8
 1515              		.cfi_offset 14, -4
 1516 0002 0400     		movs	r4, r0
 1517 0004 0D00     		movs	r5, r1
 1518 0006 1100     		movs	r1, r2
 1519              	.LVL130:
 682:Middlewares/ST/STM32_USB_Device_Library/Core/Src/usbd_core.c ****   USBD_StatusTypeDef ret;
 1520              		.loc 1 682 3 is_stmt 1 view .LVU397
 683:Middlewares/ST/STM32_USB_Device_Library/Core/Src/usbd_core.c ****   uint8_t idx;
 1521              		.loc 1 683 3 view .LVU398
 684:Middlewares/ST/STM32_USB_Device_Library/Core/Src/usbd_core.c **** 
 1522              		.loc 1 684 3 view .LVU399
 686:Middlewares/ST/STM32_USB_Device_Library/Core/Src/usbd_core.c ****   {
 1523              		.loc 1 686 3 view .LVU400
 686:Middlewares/ST/STM32_USB_Device_Library/Core/Src/usbd_core.c ****   {
 1524              		.loc 1 686 6 is_stmt 0 view .LVU401
 1525 0008 002D     		cmp	r5, #0
 1526 000a 4ED1     		bne	.L91
 688:Middlewares/ST/STM32_USB_Device_Library/Core/Src/usbd_core.c **** 
 1527              		.loc 1 688 5 is_stmt 1 view .LVU402
 1528              	.LVL131:
 690:Middlewares/ST/STM32_USB_Device_Library/Core/Src/usbd_core.c ****     {
 1529              		.loc 1 690 5 view .LVU403
 690:Middlewares/ST/STM32_USB_Device_Library/Core/Src/usbd_core.c ****     {
 1530              		.loc 1 690 13 is_stmt 0 view .LVU404
 1531 000c A523     		movs	r3, #165
 1532 000e 9B00     		lsls	r3, r3, #2
 1533 0010 C358     		ldr	r3, [r0, r3]
 690:Middlewares/ST/STM32_USB_Device_Library/Core/Src/usbd_core.c ****     {
 1534              		.loc 1 690 8 view .LVU405
 1535 0012 022B     		cmp	r3, #2
 1536 0014 08D0     		beq	.L98
 1537              	.LVL132:
 1538              	.L92:
 738:Middlewares/ST/STM32_USB_Device_Library/Core/Src/usbd_core.c **** 
 1539              		.loc 1 738 5 is_stmt 1 view .LVU406
 740:Middlewares/ST/STM32_USB_Device_Library/Core/Src/usbd_core.c ****     {
 1540              		.loc 1 740 5 view .LVU407
 740:Middlewares/ST/STM32_USB_Device_Library/Core/Src/usbd_core.c ****     {
 1541              		.loc 1 740 13 is_stmt 0 view .LVU408
 1542 0016 A823     		movs	r3, #168
 1543 0018 9B00     		lsls	r3, r3, #2
 1544 001a E05C     		ldrb	r0, [r4, r3]
 740:Middlewares/ST/STM32_USB_Device_Library/Core/Src/usbd_core.c ****     {
 1545              		.loc 1 740 8 view .LVU409
 1546 001c 0028     		cmp	r0, #0
 1547 001e 02D0     		beq	.L96
 742:Middlewares/ST/STM32_USB_Device_Library/Core/Src/usbd_core.c ****       pdev->dev_test_mode = 0U;
 1548              		.loc 1 742 7 is_stmt 1 view .LVU410
 743:Middlewares/ST/STM32_USB_Device_Library/Core/Src/usbd_core.c ****     }
 1549              		.loc 1 743 7 view .LVU411
 743:Middlewares/ST/STM32_USB_Device_Library/Core/Src/usbd_core.c ****     }
 1550              		.loc 1 743 27 is_stmt 0 view .LVU412
 1551 0020 0022     		movs	r2, #0
 1552 0022 E254     		strb	r2, [r4, r3]
 770:Middlewares/ST/STM32_USB_Device_Library/Core/Src/usbd_core.c **** }
ARM GAS  /tmp/ccrU7oA5.s 			page 50


 1553              		.loc 1 770 10 view .LVU413
 1554 0024 2800     		movs	r0, r5
 1555              	.LVL133:
 1556              	.L96:
 771:Middlewares/ST/STM32_USB_Device_Library/Core/Src/usbd_core.c **** 
 1557              		.loc 1 771 1 view .LVU414
 1558              		@ sp needed
 1559              	.LVL134:
 1560              	.LVL135:
 771:Middlewares/ST/STM32_USB_Device_Library/Core/Src/usbd_core.c **** 
 1561              		.loc 1 771 1 view .LVU415
 1562 0026 70BD     		pop	{r4, r5, r6, pc}
 1563              	.LVL136:
 1564              	.L98:
 692:Middlewares/ST/STM32_USB_Device_Library/Core/Src/usbd_core.c ****       {
 1565              		.loc 1 692 7 is_stmt 1 view .LVU416
 692:Middlewares/ST/STM32_USB_Device_Library/Core/Src/usbd_core.c ****       {
 1566              		.loc 1 692 14 is_stmt 0 view .LVU417
 1567 0028 C269     		ldr	r2, [r0, #28]
 692:Middlewares/ST/STM32_USB_Device_Library/Core/Src/usbd_core.c ****       {
 1568              		.loc 1 692 32 view .LVU418
 1569 002a 036A     		ldr	r3, [r0, #32]
 692:Middlewares/ST/STM32_USB_Device_Library/Core/Src/usbd_core.c ****       {
 1570              		.loc 1 692 10 view .LVU419
 1571 002c 9A42     		cmp	r2, r3
 1572 002e 0DD8     		bhi	.L99
 704:Middlewares/ST/STM32_USB_Device_Library/Core/Src/usbd_core.c ****             (pep->total_length >= pep->maxpacket) &&
 1573              		.loc 1 704 9 is_stmt 1 view .LVU420
 704:Middlewares/ST/STM32_USB_Device_Library/Core/Src/usbd_core.c ****             (pep->total_length >= pep->maxpacket) &&
 1574              		.loc 1 704 12 is_stmt 0 view .LVU421
 1575 0030 17D0     		beq	.L100
 1576              	.L94:
 716:Middlewares/ST/STM32_USB_Device_Library/Core/Src/usbd_core.c ****           {
 1577              		.loc 1 716 11 is_stmt 1 view .LVU422
 716:Middlewares/ST/STM32_USB_Device_Library/Core/Src/usbd_core.c ****           {
 1578              		.loc 1 716 19 is_stmt 0 view .LVU423
 1579 0032 A723     		movs	r3, #167
 1580 0034 9B00     		lsls	r3, r3, #2
 1581 0036 E35C     		ldrb	r3, [r4, r3]
 716:Middlewares/ST/STM32_USB_Device_Library/Core/Src/usbd_core.c ****           {
 1582              		.loc 1 716 14 view .LVU424
 1583 0038 032B     		cmp	r3, #3
 1584 003a 28D0     		beq	.L101
 1585              	.LVL137:
 1586              	.L95:
 724:Middlewares/ST/STM32_USB_Device_Library/Core/Src/usbd_core.c ****           (void)USBD_CtlReceiveStatus(pdev);
 1587              		.loc 1 724 11 is_stmt 1 view .LVU425
 724:Middlewares/ST/STM32_USB_Device_Library/Core/Src/usbd_core.c ****           (void)USBD_CtlReceiveStatus(pdev);
 1588              		.loc 1 724 17 is_stmt 0 view .LVU426
 1589 003c 8021     		movs	r1, #128
 1590 003e 2000     		movs	r0, r4
 1591 0040 FFF7FEFF 		bl	USBD_LL_StallEP
 1592              	.LVL138:
 725:Middlewares/ST/STM32_USB_Device_Library/Core/Src/usbd_core.c ****         }
 1593              		.loc 1 725 11 is_stmt 1 view .LVU427
 725:Middlewares/ST/STM32_USB_Device_Library/Core/Src/usbd_core.c ****         }
 1594              		.loc 1 725 17 is_stmt 0 view .LVU428
ARM GAS  /tmp/ccrU7oA5.s 			page 51


 1595 0044 2000     		movs	r0, r4
 1596 0046 FFF7FEFF 		bl	USBD_CtlReceiveStatus
 1597              	.LVL139:
 1598 004a E4E7     		b	.L92
 1599              	.LVL140:
 1600              	.L99:
 694:Middlewares/ST/STM32_USB_Device_Library/Core/Src/usbd_core.c **** 
 1601              		.loc 1 694 9 is_stmt 1 view .LVU429
 694:Middlewares/ST/STM32_USB_Device_Library/Core/Src/usbd_core.c **** 
 1602              		.loc 1 694 25 is_stmt 0 view .LVU430
 1603 004c D21A     		subs	r2, r2, r3
 1604 004e C261     		str	r2, [r0, #28]
 696:Middlewares/ST/STM32_USB_Device_Library/Core/Src/usbd_core.c **** 
 1605              		.loc 1 696 9 is_stmt 1 view .LVU431
 696:Middlewares/ST/STM32_USB_Device_Library/Core/Src/usbd_core.c **** 
 1606              		.loc 1 696 15 is_stmt 0 view .LVU432
 1607 0050 FFF7FEFF 		bl	USBD_CtlContinueSendData
 1608              	.LVL141:
 699:Middlewares/ST/STM32_USB_Device_Library/Core/Src/usbd_core.c ****       }
 1609              		.loc 1 699 9 is_stmt 1 view .LVU433
 699:Middlewares/ST/STM32_USB_Device_Library/Core/Src/usbd_core.c ****       }
 1610              		.loc 1 699 15 is_stmt 0 view .LVU434
 1611 0054 0023     		movs	r3, #0
 1612 0056 0022     		movs	r2, #0
 1613 0058 0021     		movs	r1, #0
 1614 005a 2000     		movs	r0, r4
 1615 005c FFF7FEFF 		bl	USBD_LL_PrepareReceive
 1616              	.LVL142:
 1617 0060 D9E7     		b	.L92
 1618              	.LVL143:
 1619              	.L100:
 705:Middlewares/ST/STM32_USB_Device_Library/Core/Src/usbd_core.c ****             (pep->total_length < pdev->ep0_data_len))
 1620              		.loc 1 705 17 view .LVU435
 1621 0062 8269     		ldr	r2, [r0, #24]
 704:Middlewares/ST/STM32_USB_Device_Library/Core/Src/usbd_core.c ****             (pep->total_length >= pep->maxpacket) &&
 1622              		.loc 1 704 49 discriminator 1 view .LVU436
 1623 0064 9342     		cmp	r3, r2
 1624 0066 E4D8     		bhi	.L94
 706:Middlewares/ST/STM32_USB_Device_Library/Core/Src/usbd_core.c ****         {
 1625              		.loc 1 706 38 view .LVU437
 1626 0068 A623     		movs	r3, #166
 1627 006a 9B00     		lsls	r3, r3, #2
 1628 006c C358     		ldr	r3, [r0, r3]
 705:Middlewares/ST/STM32_USB_Device_Library/Core/Src/usbd_core.c ****             (pep->total_length < pdev->ep0_data_len))
 1629              		.loc 1 705 51 view .LVU438
 1630 006e 9A42     		cmp	r2, r3
 1631 0070 DFD2     		bcs	.L94
 708:Middlewares/ST/STM32_USB_Device_Library/Core/Src/usbd_core.c ****           pdev->ep0_data_len = 0U;
 1632              		.loc 1 708 11 is_stmt 1 view .LVU439
 708:Middlewares/ST/STM32_USB_Device_Library/Core/Src/usbd_core.c ****           pdev->ep0_data_len = 0U;
 1633              		.loc 1 708 17 is_stmt 0 view .LVU440
 1634 0072 0022     		movs	r2, #0
 1635 0074 0021     		movs	r1, #0
 1636              	.LVL144:
 708:Middlewares/ST/STM32_USB_Device_Library/Core/Src/usbd_core.c ****           pdev->ep0_data_len = 0U;
 1637              		.loc 1 708 17 view .LVU441
 1638 0076 FFF7FEFF 		bl	USBD_CtlContinueSendData
ARM GAS  /tmp/ccrU7oA5.s 			page 52


 1639              	.LVL145:
 709:Middlewares/ST/STM32_USB_Device_Library/Core/Src/usbd_core.c **** 
 1640              		.loc 1 709 11 is_stmt 1 view .LVU442
 709:Middlewares/ST/STM32_USB_Device_Library/Core/Src/usbd_core.c **** 
 1641              		.loc 1 709 30 is_stmt 0 view .LVU443
 1642 007a A623     		movs	r3, #166
 1643 007c 9B00     		lsls	r3, r3, #2
 1644 007e 0022     		movs	r2, #0
 1645 0080 E250     		str	r2, [r4, r3]
 712:Middlewares/ST/STM32_USB_Device_Library/Core/Src/usbd_core.c ****         }
 1646              		.loc 1 712 11 is_stmt 1 view .LVU444
 712:Middlewares/ST/STM32_USB_Device_Library/Core/Src/usbd_core.c ****         }
 1647              		.loc 1 712 17 is_stmt 0 view .LVU445
 1648 0082 0023     		movs	r3, #0
 1649 0084 0021     		movs	r1, #0
 1650 0086 2000     		movs	r0, r4
 1651 0088 FFF7FEFF 		bl	USBD_LL_PrepareReceive
 1652              	.LVL146:
 712:Middlewares/ST/STM32_USB_Device_Library/Core/Src/usbd_core.c ****         }
 1653              		.loc 1 712 11 view .LVU446
 1654 008c C3E7     		b	.L92
 1655              	.LVL147:
 1656              	.L101:
 718:Middlewares/ST/STM32_USB_Device_Library/Core/Src/usbd_core.c ****             {
 1657              		.loc 1 718 13 is_stmt 1 view .LVU447
 718:Middlewares/ST/STM32_USB_Device_Library/Core/Src/usbd_core.c ****             {
 1658              		.loc 1 718 29 is_stmt 0 view .LVU448
 1659 008e AE23     		movs	r3, #174
 1660 0090 9B00     		lsls	r3, r3, #2
 1661 0092 E358     		ldr	r3, [r4, r3]
 718:Middlewares/ST/STM32_USB_Device_Library/Core/Src/usbd_core.c ****             {
 1662              		.loc 1 718 32 view .LVU449
 1663 0094 DA68     		ldr	r2, [r3, #12]
 718:Middlewares/ST/STM32_USB_Device_Library/Core/Src/usbd_core.c ****             {
 1664              		.loc 1 718 16 view .LVU450
 1665 0096 002A     		cmp	r2, #0
 1666 0098 D0D0     		beq	.L95
 720:Middlewares/ST/STM32_USB_Device_Library/Core/Src/usbd_core.c ****               pdev->pClass[0]->EP0_TxSent(pdev);
 1667              		.loc 1 720 15 is_stmt 1 view .LVU451
 720:Middlewares/ST/STM32_USB_Device_Library/Core/Src/usbd_core.c ****               pdev->pClass[0]->EP0_TxSent(pdev);
 1668              		.loc 1 720 29 is_stmt 0 view .LVU452
 1669 009a B522     		movs	r2, #181
 1670 009c 9200     		lsls	r2, r2, #2
 1671 009e 0021     		movs	r1, #0
 1672              	.LVL148:
 720:Middlewares/ST/STM32_USB_Device_Library/Core/Src/usbd_core.c ****               pdev->pClass[0]->EP0_TxSent(pdev);
 1673              		.loc 1 720 29 view .LVU453
 1674 00a0 A150     		str	r1, [r4, r2]
 721:Middlewares/ST/STM32_USB_Device_Library/Core/Src/usbd_core.c ****             }
 1675              		.loc 1 721 15 is_stmt 1 view .LVU454
 721:Middlewares/ST/STM32_USB_Device_Library/Core/Src/usbd_core.c ****             }
 1676              		.loc 1 721 30 is_stmt 0 view .LVU455
 1677 00a2 DB68     		ldr	r3, [r3, #12]
 721:Middlewares/ST/STM32_USB_Device_Library/Core/Src/usbd_core.c ****             }
 1678              		.loc 1 721 15 view .LVU456
 1679 00a4 2000     		movs	r0, r4
 1680              	.LVL149:
ARM GAS  /tmp/ccrU7oA5.s 			page 53


 721:Middlewares/ST/STM32_USB_Device_Library/Core/Src/usbd_core.c ****             }
 1681              		.loc 1 721 15 view .LVU457
 1682 00a6 9847     		blx	r3
 1683              	.LVL150:
 1684 00a8 C8E7     		b	.L95
 1685              	.LVL151:
 1686              	.L91:
 749:Middlewares/ST/STM32_USB_Device_Library/Core/Src/usbd_core.c **** 
 1687              		.loc 1 749 5 is_stmt 1 view .LVU458
 749:Middlewares/ST/STM32_USB_Device_Library/Core/Src/usbd_core.c **** 
 1688              		.loc 1 749 11 is_stmt 0 view .LVU459
 1689 00aa 8021     		movs	r1, #128
 1690              	.LVL152:
 749:Middlewares/ST/STM32_USB_Device_Library/Core/Src/usbd_core.c **** 
 1691              		.loc 1 749 11 view .LVU460
 1692 00ac 4942     		rsbs	r1, r1, #0
 1693 00ae 2943     		orrs	r1, r5
 1694 00b0 C9B2     		uxtb	r1, r1
 1695 00b2 FFF7FEFF 		bl	USBD_CoreFindEP
 1696              	.LVL153:
 751:Middlewares/ST/STM32_USB_Device_Library/Core/Src/usbd_core.c ****     {
 1697              		.loc 1 751 5 is_stmt 1 view .LVU461
 751:Middlewares/ST/STM32_USB_Device_Library/Core/Src/usbd_core.c ****     {
 1698              		.loc 1 751 8 is_stmt 0 view .LVU462
 1699 00b6 0028     		cmp	r0, #0
 1700 00b8 13D1     		bne	.L97
 754:Middlewares/ST/STM32_USB_Device_Library/Core/Src/usbd_core.c ****       {
 1701              		.loc 1 754 7 is_stmt 1 view .LVU463
 754:Middlewares/ST/STM32_USB_Device_Library/Core/Src/usbd_core.c ****       {
 1702              		.loc 1 754 15 is_stmt 0 view .LVU464
 1703 00ba A722     		movs	r2, #167
 1704 00bc 9200     		lsls	r2, r2, #2
 1705 00be A25C     		ldrb	r2, [r4, r2]
 754:Middlewares/ST/STM32_USB_Device_Library/Core/Src/usbd_core.c ****       {
 1706              		.loc 1 754 10 view .LVU465
 1707 00c0 032A     		cmp	r2, #3
 1708 00c2 B0D1     		bne	.L96
 756:Middlewares/ST/STM32_USB_Device_Library/Core/Src/usbd_core.c ****         {
 1709              		.loc 1 756 9 is_stmt 1 view .LVU466
 756:Middlewares/ST/STM32_USB_Device_Library/Core/Src/usbd_core.c ****         {
 1710              		.loc 1 756 25 is_stmt 0 view .LVU467
 1711 00c4 0200     		movs	r2, r0
 1712 00c6 AE32     		adds	r2, r2, #174
 1713 00c8 9200     		lsls	r2, r2, #2
 1714 00ca 1259     		ldr	r2, [r2, r4]
 756:Middlewares/ST/STM32_USB_Device_Library/Core/Src/usbd_core.c ****         {
 1715              		.loc 1 756 30 view .LVU468
 1716 00cc 5169     		ldr	r1, [r2, #20]
 756:Middlewares/ST/STM32_USB_Device_Library/Core/Src/usbd_core.c ****         {
 1717              		.loc 1 756 12 view .LVU469
 1718 00ce 0029     		cmp	r1, #0
 1719 00d0 A9D0     		beq	.L96
 758:Middlewares/ST/STM32_USB_Device_Library/Core/Src/usbd_core.c ****           ret = (USBD_StatusTypeDef)pdev->pClass[idx]->DataIn(pdev, epnum);
 1720              		.loc 1 758 11 is_stmt 1 view .LVU470
 758:Middlewares/ST/STM32_USB_Device_Library/Core/Src/usbd_core.c ****           ret = (USBD_StatusTypeDef)pdev->pClass[idx]->DataIn(pdev, epnum);
 1721              		.loc 1 758 25 is_stmt 0 view .LVU471
 1722 00d2 B521     		movs	r1, #181
ARM GAS  /tmp/ccrU7oA5.s 			page 54


 1723 00d4 8900     		lsls	r1, r1, #2
 1724 00d6 6050     		str	r0, [r4, r1]
 759:Middlewares/ST/STM32_USB_Device_Library/Core/Src/usbd_core.c **** 
 1725              		.loc 1 759 11 is_stmt 1 view .LVU472
 759:Middlewares/ST/STM32_USB_Device_Library/Core/Src/usbd_core.c **** 
 1726              		.loc 1 759 54 is_stmt 0 view .LVU473
 1727 00d8 5369     		ldr	r3, [r2, #20]
 759:Middlewares/ST/STM32_USB_Device_Library/Core/Src/usbd_core.c **** 
 1728              		.loc 1 759 37 view .LVU474
 1729 00da 2900     		movs	r1, r5
 1730 00dc 2000     		movs	r0, r4
 1731              	.LVL154:
 759:Middlewares/ST/STM32_USB_Device_Library/Core/Src/usbd_core.c **** 
 1732              		.loc 1 759 37 view .LVU475
 1733 00de 9847     		blx	r3
 1734              	.LVL155:
 761:Middlewares/ST/STM32_USB_Device_Library/Core/Src/usbd_core.c ****           {
 1735              		.loc 1 761 11 is_stmt 1 view .LVU476
 1736 00e0 A1E7     		b	.L96
 1737              	.LVL156:
 1738              	.L97:
 770:Middlewares/ST/STM32_USB_Device_Library/Core/Src/usbd_core.c **** }
 1739              		.loc 1 770 10 is_stmt 0 view .LVU477
 1740 00e2 0020     		movs	r0, #0
 1741              	.LVL157:
 770:Middlewares/ST/STM32_USB_Device_Library/Core/Src/usbd_core.c **** }
 1742              		.loc 1 770 10 view .LVU478
 1743 00e4 9FE7     		b	.L96
 1744              		.cfi_endproc
 1745              	.LFE510:
 1747              		.section	.text.USBD_GetNextDesc,"ax",%progbits
 1748              		.align	1
 1749              		.global	USBD_GetNextDesc
 1750              		.syntax unified
 1751              		.code	16
 1752              		.thumb_func
 1754              	USBD_GetNextDesc:
 1755              	.LVL158:
 1756              	.LFB523:
1118:Middlewares/ST/STM32_USB_Device_Library/Core/Src/usbd_core.c **** 
1119:Middlewares/ST/STM32_USB_Device_Library/Core/Src/usbd_core.c **** #ifdef USE_USBD_COMPOSITE
1120:Middlewares/ST/STM32_USB_Device_Library/Core/Src/usbd_core.c **** /**
1121:Middlewares/ST/STM32_USB_Device_Library/Core/Src/usbd_core.c ****   * @brief  USBD_CoreGetEPAdd
1122:Middlewares/ST/STM32_USB_Device_Library/Core/Src/usbd_core.c ****   *         Get the endpoint address relative to a selected class
1123:Middlewares/ST/STM32_USB_Device_Library/Core/Src/usbd_core.c ****   * @param  pdev: device instance
1124:Middlewares/ST/STM32_USB_Device_Library/Core/Src/usbd_core.c ****   * @param  ep_dir: USBD_EP_IN or USBD_EP_OUT
1125:Middlewares/ST/STM32_USB_Device_Library/Core/Src/usbd_core.c ****   * @param  ep_type: USBD_EP_TYPE_CTRL, USBD_EP_TYPE_ISOC, USBD_EP_TYPE_BULK or USBD_EP_TYPE_INTR
1126:Middlewares/ST/STM32_USB_Device_Library/Core/Src/usbd_core.c ****   * @param  ClassId: The Class ID
1127:Middlewares/ST/STM32_USB_Device_Library/Core/Src/usbd_core.c ****   * @retval Address of the selected endpoint or 0xFFU if no endpoint found.
1128:Middlewares/ST/STM32_USB_Device_Library/Core/Src/usbd_core.c ****   */
1129:Middlewares/ST/STM32_USB_Device_Library/Core/Src/usbd_core.c **** uint8_t USBD_CoreGetEPAdd(USBD_HandleTypeDef *pdev, uint8_t ep_dir, uint8_t ep_type, uint8_t ClassI
1130:Middlewares/ST/STM32_USB_Device_Library/Core/Src/usbd_core.c **** {
1131:Middlewares/ST/STM32_USB_Device_Library/Core/Src/usbd_core.c ****   uint8_t idx;
1132:Middlewares/ST/STM32_USB_Device_Library/Core/Src/usbd_core.c **** 
1133:Middlewares/ST/STM32_USB_Device_Library/Core/Src/usbd_core.c ****   /* Find the EP address in the selected class table */
1134:Middlewares/ST/STM32_USB_Device_Library/Core/Src/usbd_core.c ****   for (idx = 0; idx < pdev->tclasslist[ClassId].NumEps; idx++)
1135:Middlewares/ST/STM32_USB_Device_Library/Core/Src/usbd_core.c ****   {
ARM GAS  /tmp/ccrU7oA5.s 			page 55


1136:Middlewares/ST/STM32_USB_Device_Library/Core/Src/usbd_core.c ****     if (((pdev->tclasslist[ClassId].Eps[idx].add & USBD_EP_IN) == ep_dir) && \
1137:Middlewares/ST/STM32_USB_Device_Library/Core/Src/usbd_core.c ****         (pdev->tclasslist[ClassId].Eps[idx].type == ep_type) && \
1138:Middlewares/ST/STM32_USB_Device_Library/Core/Src/usbd_core.c ****         (pdev->tclasslist[ClassId].Eps[idx].is_used != 0U))
1139:Middlewares/ST/STM32_USB_Device_Library/Core/Src/usbd_core.c ****     {
1140:Middlewares/ST/STM32_USB_Device_Library/Core/Src/usbd_core.c ****       return (pdev->tclasslist[ClassId].Eps[idx].add);
1141:Middlewares/ST/STM32_USB_Device_Library/Core/Src/usbd_core.c ****     }
1142:Middlewares/ST/STM32_USB_Device_Library/Core/Src/usbd_core.c ****   }
1143:Middlewares/ST/STM32_USB_Device_Library/Core/Src/usbd_core.c **** 
1144:Middlewares/ST/STM32_USB_Device_Library/Core/Src/usbd_core.c ****   /* If reaching this point, then no endpoint was found */
1145:Middlewares/ST/STM32_USB_Device_Library/Core/Src/usbd_core.c ****   return 0xFFU;
1146:Middlewares/ST/STM32_USB_Device_Library/Core/Src/usbd_core.c **** }
1147:Middlewares/ST/STM32_USB_Device_Library/Core/Src/usbd_core.c **** #endif /* USE_USBD_COMPOSITE */
1148:Middlewares/ST/STM32_USB_Device_Library/Core/Src/usbd_core.c **** 
1149:Middlewares/ST/STM32_USB_Device_Library/Core/Src/usbd_core.c **** /**
1150:Middlewares/ST/STM32_USB_Device_Library/Core/Src/usbd_core.c ****   * @brief  USBD_GetEpDesc
1151:Middlewares/ST/STM32_USB_Device_Library/Core/Src/usbd_core.c ****   *         This function return the Endpoint descriptor
1152:Middlewares/ST/STM32_USB_Device_Library/Core/Src/usbd_core.c ****   * @param  pdev: device instance
1153:Middlewares/ST/STM32_USB_Device_Library/Core/Src/usbd_core.c ****   * @param  pConfDesc:  pointer to Bos descriptor
1154:Middlewares/ST/STM32_USB_Device_Library/Core/Src/usbd_core.c ****   * @param  EpAddr:  endpoint address
1155:Middlewares/ST/STM32_USB_Device_Library/Core/Src/usbd_core.c ****   * @retval pointer to video endpoint descriptor
1156:Middlewares/ST/STM32_USB_Device_Library/Core/Src/usbd_core.c ****   */
1157:Middlewares/ST/STM32_USB_Device_Library/Core/Src/usbd_core.c **** void *USBD_GetEpDesc(uint8_t *pConfDesc, uint8_t EpAddr)
1158:Middlewares/ST/STM32_USB_Device_Library/Core/Src/usbd_core.c **** {
1159:Middlewares/ST/STM32_USB_Device_Library/Core/Src/usbd_core.c ****   USBD_DescHeaderTypeDef *pdesc = (USBD_DescHeaderTypeDef *)(void *)pConfDesc;
1160:Middlewares/ST/STM32_USB_Device_Library/Core/Src/usbd_core.c ****   USBD_ConfigDescTypeDef *desc = (USBD_ConfigDescTypeDef *)(void *)pConfDesc;
1161:Middlewares/ST/STM32_USB_Device_Library/Core/Src/usbd_core.c ****   USBD_EpDescTypeDef *pEpDesc = NULL;
1162:Middlewares/ST/STM32_USB_Device_Library/Core/Src/usbd_core.c ****   uint16_t ptr;
1163:Middlewares/ST/STM32_USB_Device_Library/Core/Src/usbd_core.c **** 
1164:Middlewares/ST/STM32_USB_Device_Library/Core/Src/usbd_core.c ****   if (desc->wTotalLength > desc->bLength)
1165:Middlewares/ST/STM32_USB_Device_Library/Core/Src/usbd_core.c ****   {
1166:Middlewares/ST/STM32_USB_Device_Library/Core/Src/usbd_core.c ****     ptr = desc->bLength;
1167:Middlewares/ST/STM32_USB_Device_Library/Core/Src/usbd_core.c **** 
1168:Middlewares/ST/STM32_USB_Device_Library/Core/Src/usbd_core.c ****     while (ptr < desc->wTotalLength)
1169:Middlewares/ST/STM32_USB_Device_Library/Core/Src/usbd_core.c ****     {
1170:Middlewares/ST/STM32_USB_Device_Library/Core/Src/usbd_core.c ****       pdesc = USBD_GetNextDesc((uint8_t *)pdesc, &ptr);
1171:Middlewares/ST/STM32_USB_Device_Library/Core/Src/usbd_core.c **** 
1172:Middlewares/ST/STM32_USB_Device_Library/Core/Src/usbd_core.c ****       if (pdesc->bDescriptorType == USB_DESC_TYPE_ENDPOINT)
1173:Middlewares/ST/STM32_USB_Device_Library/Core/Src/usbd_core.c ****       {
1174:Middlewares/ST/STM32_USB_Device_Library/Core/Src/usbd_core.c ****         pEpDesc = (USBD_EpDescTypeDef *)(void *)pdesc;
1175:Middlewares/ST/STM32_USB_Device_Library/Core/Src/usbd_core.c **** 
1176:Middlewares/ST/STM32_USB_Device_Library/Core/Src/usbd_core.c ****         if (pEpDesc->bEndpointAddress == EpAddr)
1177:Middlewares/ST/STM32_USB_Device_Library/Core/Src/usbd_core.c ****         {
1178:Middlewares/ST/STM32_USB_Device_Library/Core/Src/usbd_core.c ****           break;
1179:Middlewares/ST/STM32_USB_Device_Library/Core/Src/usbd_core.c ****         }
1180:Middlewares/ST/STM32_USB_Device_Library/Core/Src/usbd_core.c ****         else
1181:Middlewares/ST/STM32_USB_Device_Library/Core/Src/usbd_core.c ****         {
1182:Middlewares/ST/STM32_USB_Device_Library/Core/Src/usbd_core.c ****           pEpDesc = NULL;
1183:Middlewares/ST/STM32_USB_Device_Library/Core/Src/usbd_core.c ****         }
1184:Middlewares/ST/STM32_USB_Device_Library/Core/Src/usbd_core.c ****       }
1185:Middlewares/ST/STM32_USB_Device_Library/Core/Src/usbd_core.c ****     }
1186:Middlewares/ST/STM32_USB_Device_Library/Core/Src/usbd_core.c ****   }
1187:Middlewares/ST/STM32_USB_Device_Library/Core/Src/usbd_core.c **** 
1188:Middlewares/ST/STM32_USB_Device_Library/Core/Src/usbd_core.c ****   return (void *)pEpDesc;
1189:Middlewares/ST/STM32_USB_Device_Library/Core/Src/usbd_core.c **** }
1190:Middlewares/ST/STM32_USB_Device_Library/Core/Src/usbd_core.c **** 
1191:Middlewares/ST/STM32_USB_Device_Library/Core/Src/usbd_core.c **** /**
1192:Middlewares/ST/STM32_USB_Device_Library/Core/Src/usbd_core.c ****   * @brief  USBD_GetNextDesc
ARM GAS  /tmp/ccrU7oA5.s 			page 56


1193:Middlewares/ST/STM32_USB_Device_Library/Core/Src/usbd_core.c ****   *         This function return the next descriptor header
1194:Middlewares/ST/STM32_USB_Device_Library/Core/Src/usbd_core.c ****   * @param  buf: Buffer where the descriptor is available
1195:Middlewares/ST/STM32_USB_Device_Library/Core/Src/usbd_core.c ****   * @param  ptr: data pointer inside the descriptor
1196:Middlewares/ST/STM32_USB_Device_Library/Core/Src/usbd_core.c ****   * @retval next header
1197:Middlewares/ST/STM32_USB_Device_Library/Core/Src/usbd_core.c ****   */
1198:Middlewares/ST/STM32_USB_Device_Library/Core/Src/usbd_core.c **** USBD_DescHeaderTypeDef *USBD_GetNextDesc(uint8_t *pbuf, uint16_t *ptr)
1199:Middlewares/ST/STM32_USB_Device_Library/Core/Src/usbd_core.c **** {
 1757              		.loc 1 1199 1 is_stmt 1 view -0
 1758              		.cfi_startproc
 1759              		@ args = 0, pretend = 0, frame = 0
 1760              		@ frame_needed = 0, uses_anonymous_args = 0
 1761              		@ link register save eliminated.
1200:Middlewares/ST/STM32_USB_Device_Library/Core/Src/usbd_core.c ****   USBD_DescHeaderTypeDef *pnext = (USBD_DescHeaderTypeDef *)(void *)pbuf;
 1762              		.loc 1 1200 3 view .LVU480
1201:Middlewares/ST/STM32_USB_Device_Library/Core/Src/usbd_core.c **** 
1202:Middlewares/ST/STM32_USB_Device_Library/Core/Src/usbd_core.c ****   *ptr += pnext->bLength;
 1763              		.loc 1 1202 3 view .LVU481
 1764 0000 0B88     		ldrh	r3, [r1]
 1765              		.loc 1 1202 16 is_stmt 0 view .LVU482
 1766 0002 0278     		ldrb	r2, [r0]
 1767              		.loc 1 1202 8 view .LVU483
 1768 0004 9B18     		adds	r3, r3, r2
 1769 0006 0B80     		strh	r3, [r1]
1203:Middlewares/ST/STM32_USB_Device_Library/Core/Src/usbd_core.c ****   pnext = (USBD_DescHeaderTypeDef *)(void *)(pbuf + pnext->bLength);
 1770              		.loc 1 1203 3 is_stmt 1 view .LVU484
 1771              		.loc 1 1203 58 is_stmt 0 view .LVU485
 1772 0008 0378     		ldrb	r3, [r0]
 1773              		.loc 1 1203 9 view .LVU486
 1774 000a C018     		adds	r0, r0, r3
 1775              	.LVL159:
1204:Middlewares/ST/STM32_USB_Device_Library/Core/Src/usbd_core.c **** 
1205:Middlewares/ST/STM32_USB_Device_Library/Core/Src/usbd_core.c ****   return (pnext);
 1776              		.loc 1 1205 3 is_stmt 1 view .LVU487
1206:Middlewares/ST/STM32_USB_Device_Library/Core/Src/usbd_core.c **** }
 1777              		.loc 1 1206 1 is_stmt 0 view .LVU488
 1778              		@ sp needed
 1779 000c 7047     		bx	lr
 1780              		.cfi_endproc
 1781              	.LFE523:
 1783              		.section	.text.USBD_GetEpDesc,"ax",%progbits
 1784              		.align	1
 1785              		.global	USBD_GetEpDesc
 1786              		.syntax unified
 1787              		.code	16
 1788              		.thumb_func
 1790              	USBD_GetEpDesc:
 1791              	.LVL160:
 1792              	.LFB522:
1158:Middlewares/ST/STM32_USB_Device_Library/Core/Src/usbd_core.c ****   USBD_DescHeaderTypeDef *pdesc = (USBD_DescHeaderTypeDef *)(void *)pConfDesc;
 1793              		.loc 1 1158 1 is_stmt 1 view -0
 1794              		.cfi_startproc
 1795              		@ args = 0, pretend = 0, frame = 8
 1796              		@ frame_needed = 0, uses_anonymous_args = 0
1158:Middlewares/ST/STM32_USB_Device_Library/Core/Src/usbd_core.c ****   USBD_DescHeaderTypeDef *pdesc = (USBD_DescHeaderTypeDef *)(void *)pConfDesc;
 1797              		.loc 1 1158 1 is_stmt 0 view .LVU490
 1798 0000 30B5     		push	{r4, r5, lr}
 1799              	.LCFI16:
ARM GAS  /tmp/ccrU7oA5.s 			page 57


 1800              		.cfi_def_cfa_offset 12
 1801              		.cfi_offset 4, -12
 1802              		.cfi_offset 5, -8
 1803              		.cfi_offset 14, -4
 1804 0002 83B0     		sub	sp, sp, #12
 1805              	.LCFI17:
 1806              		.cfi_def_cfa_offset 24
 1807 0004 0400     		movs	r4, r0
 1808 0006 0D00     		movs	r5, r1
1159:Middlewares/ST/STM32_USB_Device_Library/Core/Src/usbd_core.c ****   USBD_ConfigDescTypeDef *desc = (USBD_ConfigDescTypeDef *)(void *)pConfDesc;
 1809              		.loc 1 1159 3 is_stmt 1 view .LVU491
 1810              	.LVL161:
1160:Middlewares/ST/STM32_USB_Device_Library/Core/Src/usbd_core.c ****   USBD_EpDescTypeDef *pEpDesc = NULL;
 1811              		.loc 1 1160 3 view .LVU492
1161:Middlewares/ST/STM32_USB_Device_Library/Core/Src/usbd_core.c ****   uint16_t ptr;
 1812              		.loc 1 1161 3 view .LVU493
1162:Middlewares/ST/STM32_USB_Device_Library/Core/Src/usbd_core.c **** 
 1813              		.loc 1 1162 3 view .LVU494
1164:Middlewares/ST/STM32_USB_Device_Library/Core/Src/usbd_core.c ****   {
 1814              		.loc 1 1164 3 view .LVU495
1164:Middlewares/ST/STM32_USB_Device_Library/Core/Src/usbd_core.c ****   {
 1815              		.loc 1 1164 11 is_stmt 0 view .LVU496
 1816 0008 8278     		ldrb	r2, [r0, #2]
 1817 000a C378     		ldrb	r3, [r0, #3]
 1818 000c 1B02     		lsls	r3, r3, #8
 1819 000e 1343     		orrs	r3, r2
1164:Middlewares/ST/STM32_USB_Device_Library/Core/Src/usbd_core.c ****   {
 1820              		.loc 1 1164 32 view .LVU497
 1821 0010 0278     		ldrb	r2, [r0]
1164:Middlewares/ST/STM32_USB_Device_Library/Core/Src/usbd_core.c ****   {
 1822              		.loc 1 1164 6 view .LVU498
 1823 0012 9342     		cmp	r3, r2
 1824 0014 18D9     		bls	.L107
1166:Middlewares/ST/STM32_USB_Device_Library/Core/Src/usbd_core.c **** 
 1825              		.loc 1 1166 5 is_stmt 1 view .LVU499
1166:Middlewares/ST/STM32_USB_Device_Library/Core/Src/usbd_core.c **** 
 1826              		.loc 1 1166 9 is_stmt 0 view .LVU500
 1827 0016 6B46     		mov	r3, sp
 1828 0018 DA80     		strh	r2, [r3, #6]
1168:Middlewares/ST/STM32_USB_Device_Library/Core/Src/usbd_core.c ****     {
 1829              		.loc 1 1168 5 is_stmt 1 view .LVU501
 1830              	.LVL162:
 1831              	.L105:
1168:Middlewares/ST/STM32_USB_Device_Library/Core/Src/usbd_core.c ****     {
 1832              		.loc 1 1168 16 view .LVU502
1168:Middlewares/ST/STM32_USB_Device_Library/Core/Src/usbd_core.c ****     {
 1833              		.loc 1 1168 22 is_stmt 0 view .LVU503
 1834 001a A278     		ldrb	r2, [r4, #2]
 1835 001c E378     		ldrb	r3, [r4, #3]
 1836 001e 1B02     		lsls	r3, r3, #8
 1837 0020 1343     		orrs	r3, r2
1168:Middlewares/ST/STM32_USB_Device_Library/Core/Src/usbd_core.c ****     {
 1838              		.loc 1 1168 16 view .LVU504
 1839 0022 6A46     		mov	r2, sp
 1840 0024 0632     		adds	r2, r2, #6
 1841 0026 1288     		ldrh	r2, [r2]
 1842 0028 9A42     		cmp	r2, r3
ARM GAS  /tmp/ccrU7oA5.s 			page 58


 1843 002a 0AD2     		bcs	.L108
1170:Middlewares/ST/STM32_USB_Device_Library/Core/Src/usbd_core.c **** 
 1844              		.loc 1 1170 7 is_stmt 1 view .LVU505
1170:Middlewares/ST/STM32_USB_Device_Library/Core/Src/usbd_core.c **** 
 1845              		.loc 1 1170 15 is_stmt 0 view .LVU506
 1846 002c 6B46     		mov	r3, sp
 1847 002e 991D     		adds	r1, r3, #6
 1848 0030 FFF7FEFF 		bl	USBD_GetNextDesc
 1849              	.LVL163:
1172:Middlewares/ST/STM32_USB_Device_Library/Core/Src/usbd_core.c ****       {
 1850              		.loc 1 1172 7 is_stmt 1 view .LVU507
1172:Middlewares/ST/STM32_USB_Device_Library/Core/Src/usbd_core.c ****       {
 1851              		.loc 1 1172 16 is_stmt 0 view .LVU508
 1852 0034 4378     		ldrb	r3, [r0, #1]
1172:Middlewares/ST/STM32_USB_Device_Library/Core/Src/usbd_core.c ****       {
 1853              		.loc 1 1172 10 view .LVU509
 1854 0036 052B     		cmp	r3, #5
 1855 0038 EFD1     		bne	.L105
1174:Middlewares/ST/STM32_USB_Device_Library/Core/Src/usbd_core.c **** 
 1856              		.loc 1 1174 9 is_stmt 1 view .LVU510
 1857              	.LVL164:
1176:Middlewares/ST/STM32_USB_Device_Library/Core/Src/usbd_core.c ****         {
 1858              		.loc 1 1176 9 view .LVU511
1176:Middlewares/ST/STM32_USB_Device_Library/Core/Src/usbd_core.c ****         {
 1859              		.loc 1 1176 20 is_stmt 0 view .LVU512
 1860 003a 8378     		ldrb	r3, [r0, #2]
1176:Middlewares/ST/STM32_USB_Device_Library/Core/Src/usbd_core.c ****         {
 1861              		.loc 1 1176 12 view .LVU513
 1862 003c AB42     		cmp	r3, r5
 1863 003e ECD1     		bne	.L105
 1864 0040 00E0     		b	.L103
 1865              	.LVL165:
 1866              	.L108:
1176:Middlewares/ST/STM32_USB_Device_Library/Core/Src/usbd_core.c ****         {
 1867              		.loc 1 1176 12 view .LVU514
 1868 0042 0020     		movs	r0, #0
 1869              	.LVL166:
 1870              	.L103:
1189:Middlewares/ST/STM32_USB_Device_Library/Core/Src/usbd_core.c **** 
 1871              		.loc 1 1189 1 view .LVU515
 1872 0044 03B0     		add	sp, sp, #12
 1873              		@ sp needed
 1874              	.LVL167:
 1875              	.LVL168:
1189:Middlewares/ST/STM32_USB_Device_Library/Core/Src/usbd_core.c **** 
 1876              		.loc 1 1189 1 view .LVU516
 1877 0046 30BD     		pop	{r4, r5, pc}
 1878              	.LVL169:
 1879              	.L107:
1161:Middlewares/ST/STM32_USB_Device_Library/Core/Src/usbd_core.c ****   uint16_t ptr;
 1880              		.loc 1 1161 23 view .LVU517
 1881 0048 0020     		movs	r0, #0
 1882              	.LVL170:
1188:Middlewares/ST/STM32_USB_Device_Library/Core/Src/usbd_core.c **** }
 1883              		.loc 1 1188 3 is_stmt 1 view .LVU518
1188:Middlewares/ST/STM32_USB_Device_Library/Core/Src/usbd_core.c **** }
 1884              		.loc 1 1188 10 is_stmt 0 view .LVU519
ARM GAS  /tmp/ccrU7oA5.s 			page 59


 1885 004a FBE7     		b	.L103
 1886              		.cfi_endproc
 1887              	.LFE522:
 1889              		.text
 1890              	.Letext0:
 1891              		.file 2 "/usr/arm-none-eabi/include/machine/_default_types.h"
 1892              		.file 3 "/usr/arm-none-eabi/include/sys/_stdint.h"
 1893              		.file 4 "Middlewares/ST/STM32_USB_Device_Library/Core/Inc/usbd_def.h"
 1894              		.file 5 "Middlewares/ST/STM32_USB_Device_Library/Core/Inc/usbd_core.h"
 1895              		.file 6 "Middlewares/ST/STM32_USB_Device_Library/Core/Inc/usbd_ioreq.h"
 1896              		.file 7 "Middlewares/ST/STM32_USB_Device_Library/Core/Inc/usbd_ctlreq.h"
 1897              		.file 8 "/usr/arm-none-eabi/include/stdio.h"
 1898              		.file 9 "Drivers/STM32G0xx_HAL_Driver/Inc/stm32g0xx_ll_dma.h"
 1899              		.file 10 "<built-in>"
ARM GAS  /tmp/ccrU7oA5.s 			page 60

